******************************************************************************
            TI ARM Clang Linker PC v1.3.0                      
******************************************************************************
>> Linked Mon Jan 16 10:57:54 2023

OUTPUT FILE NAME:   <collector_CC1352R1_LAUNCHXL_tirtos7_ticlang.out>
ENTRY POINT SYMBOL: "_c_int00"  address: 00015961


MEMORY CONFIGURATION

         name            origin    length      used     unused   attr    fill
----------------------  --------  ---------  --------  --------  ----  --------
  FLASH                 00000000   00056000  00021048  00034fb8  R  X
  FLASH_LAST            00056000   00002000  00002000  00000000  R  X
  SRAM                  20000000   00014000  000036d5  0001092b  RW X


SEGMENT ALLOCATION MAP

run origin  load origin   length   init length attrs members
----------  ----------- ---------- ----------- ----- -------
00000000    00000000    00018c20   00018c20    r-x
  00000000    00000000    0000003c   0000003c    r-- .resetVecs
  0000003c    0000003c    00000004   00000004    r-x .text.1
  00000040    00000040    00002894   00002894    r-- .rodata
  000028d4    000028d4    0001634c   0001634c    r-x .text.2
00018c20    00018c20    00000008   00000008    rw-
  00018c20    00018c20    00000008   00000008    rw- .args
00018c28    00018c28    00000420   00000420    r--
  00018c28    00018c28    00000420   00000420    r-- .cinit
0004e000    0004e000    00008000   00000000    rw-
  0004e000    0004e000    00008000   00000000    rw- .TI.bound:flashBuf0
00056000    00056000    00002000   00002000    r-x
  00056000    00056000    00001fa8   00001fa8    r-x .text.3
  00057fa8    00057fa8    00000058   00000058    r-- .ccfg
200000d8    200000d8    00001778   00000000    rw-
  200000d8    200000d8    00000034   00000000    rw- .bss.1
  2000010c    2000010c    00000010   00000000    rw- .data:RAM_MAC_BASE_ADDR
  20000120    20000120    00001730   00000000    rw- .bss.2
20001850    20001850    00000010   00000000    rw-
  20001850    20001850    00000010   00000000    rw- .TI.bound:dmaUart1RxControlTableEntry
20001860    20001860    0000191b   00000000    rw-
  20001860    20001860    00000010   00000000    rw- .TI.bound:dmaUart1TxControlTableEntry
  20001870    20001870    00000b5e   00000000    rw- .bss.3
  200023d0    200023d0    00000dab   00000000    rw- .data
20013aa0    20013aa0    00000560   00000000    rw-
  20013aa0    20013aa0    00000560   00000000    rw- .stack


SECTION ALLOCATION MAP

 output                                  attributes/
section   page    origin      length       input sections
--------  ----  ----------  ----------   ----------------
.resetVecs 
*          0    00000000    0000003c     
                  00000000    0000003c     ti_sysbios_config.o (.resetVecs)

.vecs      0    20000000    000000d8     NOLOAD SECTION
                  20000000    000000d8     ti_sysbios_config.o (.vecs)

.rodata    0    00000040    00002894     
                  00000040    000005e7     ti_sysbios_config.o (.rodata.str1.1)
                  00000627    00000001     ti_drivers_config.o (.rodata.Button_count)
                  00000628    00000568     maclib_secure_cc13x2_tirtos7.a : hmac_rom_init.o (.rodata.HMAC_ROM_Flash_JT)
                  00000b90    0000054d     csf.o (.rodata.str1.1)
                  000010dd    00000002     cllc.o (.rodata.keyUsageList)
                  000010df    00000001     ti_drivers_config.o (.rodata.GPIO_pinLowerBound)
                  000010e0    000002e0     rf_multiMode_cc13x2.a : rf_patch_cpe_prop.c.cc13x2.ticlang.o (.rodata.patchImageProp)
                  000013c0    00000258     maclib_secure_cc13x2_tirtos7.a : fh_rom_init.o (.rodata.FH_ROM_Flash_JT)
                  00001618    00000188     cui.o (.rodata.str1.1)
                  000017a0    00000101     libc.a : aeabi_ctype.S.obj (.rodata)
                  000018a1    00000100     crc.o (.rodata.crc_table)
                  000019a1    000000fa     maclib_secure_cc13x2_tirtos7.a : fh_global.o (.rodata.FH_stateMatrix)
                  00001a9b    000000f8     mac_cfg.o (.rodata.macPibTbl)
                  00001b93    00000001     ti_drivers_config.o (.rodata.GPIO_pinUpperBound)
                  00001b94    000000cc     maclib_secure_cc13x2_tirtos7.a : lmac_rom_init.o (.rodata.LMAC_ROM_Flash_JT)
                  00001c60    0000008c     mac_cfg.o (.rodata.FHPIB_defaults)
                  00001cec    00000089     ti_sysbios_config.o (.rodata.ti_sysbios_family_arm_m3_Hwi_Instance_init.err.1)
                  00001d75    00000089     ti_sysbios_config.o (.rodata.ti_sysbios_runtime_Memory_alloc.err)
                  00001dfe    00000002     drivers_cc13x2.a : UART2CC26X2.c.obj (.rodata.stopBits)
                  00001e00    00000088     mac_cfg.o (.rodata.macPibDefaults)
                  00001e88    00000086     ti_sysbios_config.o (.rodata.ti_sysbios_family_arm_m3_Hwi_Instance_init.err)
                  00001f0e    00000072     maclib_secure_cc13x2_tirtos7.a : hmac_global.o (.rodata.macAssociatingSt)
                  00001f80    00000072                                    : hmac_global.o (.rodata.macIdleSt)
                  00001ff2    00000072                                    : hmac_global.o (.rodata.macPollingSt)
                  00002064    00000072                                    : hmac_global.o (.rodata.macScanningSt)
                  000020d6    00000072                                    : hmac_global.o (.rodata.macStartingSt)
                  00002148    0000006c                                    : icall_osal_rom_init.o (.rodata.ICALL_OSAL_ROM_Flash_JT)
                  000021b4    0000006c     mac_user_config.o (.rodata.macRfDriverTable)
                  00002220    00000058     mac_cfg.o (.rodata.macSecurityPibTbl)
                  00002278    00000058     ti_drivers_config.o (.rodata.uart2CC26X2HWAttrs)
                  000022d0    00000054     drivers_cc13x2.a : PowerCC26X2.c.obj (.rodata.resourceDB)
                  00002324    00000050     mac_cfg.o (.rodata.macMRFSKStdPhyTable)
                  00002374    00000040     mac_user_config.o (.rodata.macCryptoDriverTable)
                  000023b4    00000040     maclib_secure_cc13x2_tirtos7.a : hmac_global.o (.rodata.macTimerRolloverValue)
                  000023f4    00000038                                    : hmac_global.o (.rodata.macCmdIncludeFHIe)
                  0000242c    00000030     ti_radio_config.o (.rodata.RF_cmdPropRxAdv_2gfsk50kbps154g)
                  0000245c    0000002c     csf.o (.rodata..Lswitch.table.Csf_deviceSensorDeviceTypeResponseUpdate)
                  00002488    00000028     drivers_cc13x2.a : NVSCC26XX.c.obj (.rodata.NVSCC26XX_fxnTable)
                  000024b0    00000028     ti_radio_config.o (.rodata.RF_cmdPropRadioDivSetup_2gfsk50kbps154g)
                  000024d8    00000028     maclib_secure_cc13x2_tirtos7.a : mac_radio.o (.rodata.activityObject)
                  00002500    00000024     drivers_cc13x2.a : UART2.c.obj (.rodata.UART2_defaultParams)
                  00002524    00000024     ti_sysbios_config.o (.rodata.ti_sysbios_knl_Task_Params_default)
                  00002548    00000020     mac_user_config.o (.rodata..L__const.rfSelect.RfCfg)
                  00002568    00000020     ti_radio_config.o (.rodata.RF_cmdPropTxAdv_2gfsk50kbps154g)
                  00002588    00000020     rf_multiMode_cc13x2.a : RFCC26X2_multiMode.c.cc13x2.ticlang.o (.rodata.cst32)
                  000025a8    00000020     cllc.o (.rodata.keyDeviceList)
                  000025c8    0000001c     ti_radio_config.o (.rodata.RF_cmdPropCs_2gfsk50kbps154g)
                  000025e4    0000001c     ti_sysbios_config.o (.rodata.ti_sysbios_family_arm_cc26xx_Timer_Params_default)
                  00002600    00000018     drivers_cc13x2.a : PWM.c.obj (.rodata.PWM_defaultParams)
                  00002618    00000018     ti_radio_config.o (.rodata.RF_cmdFs_2gfsk50kbps154g)
                  00002630    00000018     maclib_secure_cc13x2_tirtos7.a : hmac_global.o (.rodata.macSendMsgBufSize)
                  00002648    00000018     ti_sysbios_config.o (.rodata.ti_sysbios_family_arm_m3_Hwi_Params_default)
                  00002660    00000014     drivers_cc13x2.a : Button.c.obj (.rodata.Button_defaultParams)
                  00002674    00000014     ti_drivers_config.o (.rodata.PowerCC26X2_config)
                  00002688    00000014     drivers_cc13x2.a : TRNG.c.obj (.rodata.TRNG_defaultParams)
                  0000269c    00000014     ti_sysbios_config.o (.rodata.ti_sysbios_knl_Swi_Params_default)
                  000026b0    00000013     macTask.o (.rodata.msacbackSizeTable)
                  000026c3    00000011     collector.o (.rodata.str1.1)
                  000026d4    00000011     csf.o (.rodata.validChannelMask)
                  000026e5    00000001     ti_drivers_config.o (.rodata.LED_count)
                  000026e6    00000001     ti_drivers_config.o (.rodata.NVS_count)
                  000026e7    00000001     ti_drivers_config.o (.rodata.UART2_count)
                  000026e8    00000010     drivers_cc13x2.a : AESCCM.c.obj (.rodata.AESCCM_defaultParams)
                  000026f8    00000010     ti_drivers_config.o (.rodata.ButtonHWAttrs)
                  00002708    00000010     ti_drivers_config.o (.rodata.Button_config)
                  00002718    00000010     ti_drivers_config.o (.rodata.GPIO_config)
                  00002728    00000010     ti_drivers_config.o (.rodata.LED_config)
                  00002738    00000010     maclib_secure_cc13x2_tirtos7.a : mac_duty_cycle.o (.rodata.cst16)
                  00002748    00000010                                    : hmac_global.o (.rodata.macIEEEPhyTable)
                  00002758    0000000f     cui.o (.rodata.str1.4)
                  00002767    0000000e     maclib_secure_cc13x2_tirtos7.a : hmac_global.o (.rodata.macCmdBufSize)
                  00002775    0000000e                                    : hmac_global.o (.rodata.macTxFrameFailed)
                  00002783    0000000e                                    : hmac_global.o (.rodata.macTxFrameSuccess)
                  00002791    00000001     ti_drivers_config.o (.rodata.aesccmCC26XXHWAttrs)
                  00002792    00000002     --HOLE-- [fill = 0]
                  00002794    0000000e     csf.o (.rodata.str1.4)
                  000027a2    00000002     --HOLE-- [fill = 0]
                  000027a4    0000000c     drivers_cc13x2.a : Random.c.obj (.rodata..L__const.Random_seedAutomatic.hwAttrs)
                  000027b0    0000000c     ti_drivers_config.o (.rodata.NVS_config)
                  000027bc    0000000c     ti_drivers_config.o (.rodata.RFCC26XX_hwAttrs)
                  000027c8    0000000c     ti_sysbios_config.o (.rodata.defAttrs)
                  000027d4    0000000c     maclib_secure_cc13x2_tirtos7.a : hmac_global.o (.rodata.macCbackEventTbl)
                  000027e0    0000000c                                    : hmac_global.o (.rodata.macSendMsgDataSize)
                  000027ec    0000000c     ti_sysbios_config.o (.rodata.ti_sysbios_knl_Clock_Params_default)
                  000027f8    0000000c     ti_sysbios_config.o (.rodata.ti_sysbios_knl_Semaphore_Params_default)
                  00002804    0000000a     drivers_cc13x2.a : Button.c.obj (.rodata..Lswitch.table.Button_gpioCallbackFxn)
                  0000280e    00000002     --HOLE-- [fill = 0]
                  00002810    0000000a     cllc.o (.rodata.keyIdLookupList)
                  0000281a    00000009     maclib_secure_cc13x2_tirtos7.a : hmac_global.o (.rodata.macCmdLen)
                  00002823    00000001     --HOLE-- [fill = 0]
                  00002824    00000008     rf_multiMode_cc13x2.a : RFCC26X2_multiMode.c.cc13x2.ticlang.o (.rodata..L__const.RF_hwiCpe0Active.activeCmd)
                  0000282c    00000008     ti_drivers_config.o (.rodata.AESCCM_config)
                  00002834    00000008     cllc.o (.rodata.Cllc_keySource)
                  0000283c    00000008     drivers_cc13x2.a : LED.c.obj (.rodata.LED_defaultParams)
                  00002844    00000008     ti_drivers_config.o (.rodata.UART2_config)
                  0000284c    00000008     ti_drivers_config.o (.rodata.UDMACC26XX_config)
                  00002854    00000008     driverlib.lib : aux_sysif.o (.rodata.cst4)
                  0000285c    00000008     maclib_secure_cc13x2_tirtos7.a : mac_rx.o (.rodata.cst4)
                  00002864    00000008     main.o (.rodata.cst8)
                  0000286c    00000008     maclib_secure_cc13x2_tirtos7.a : fh_global.o (.rodata.fhSupFrameTypes)
                  00002874    00000008                                    : hmac_global.o (.rodata.macAuthTagLen)
                  0000287c    00000008     ti_drivers_config.o (.rodata.nvsCC26XXHWAttrs)
                  00002884    00000008     ti_sysbios_config.o (.rodata.prefixStrings)
                  0000288c    00000008     ti_sysbios_config.o (.rodata.ti_sysbios_knl_Idle_funcList)
                  00002894    00000008     ti_drivers_config.o (.rodata.udmaCC26XXHWAttrs)
                  0000289c    00000006     cui.o (.rodata..L.str.8)
                  000028a2    00000006     maclib_secure_cc13x2_tirtos7.a : mac_hl_patch.o (.rodata..L__const.macWrapperAddKeyInitFCtr.mtKeyUsageEntry)
                  000028a8    00000005     drivers_cc13x2.a : UART2CC26X2.c.obj (.rodata.parityType)
                  000028ad    00000005                      : UART2CC26X2.c.obj (.rodata.rxFifoThreshold)
                  000028b2    00000005     cllc.o (.rodata.securityLevelEntry)
                  000028b7    00000005     drivers_cc13x2.a : UART2CC26X2.c.obj (.rodata.txFifoThreshold)
                  000028bc    00000004     ti_drivers_config.o (.rodata.LEDHWAttrs)
                  000028c0    00000004     drivers_cc13x2.a : NVS.c.obj (.rodata.NVS_defaultParams)
                  000028c4    00000004     cui.o (.rodata.cst4)
                  000028c8    00000004     drivers_cc13x2.a : UART2CC26X2.c.obj (.rodata.cst4)
                  000028cc    00000004     maclib_secure_cc13x2_tirtos7.a : hmac_global.o (.rodata.macKeySourceLen)
                  000028d0    00000004     ti_sysbios_config.o (.rodata.ti_sysbios_family_arm_m3_Hwi_swiTaskKeyAddress)

.cinit     0    00018c28    00000420     
                  00018c28    000003ab     (.cinit..data.load) [load image, compression = lzss]
                  00018fd3    00000001     --HOLE-- [fill = 0]
                  00018fd4    0000000c     (__TI_handler_table)
                  00018fe0    00000008     (.cinit..TI.bound:dmaUart1RxControlTableEntry.load) [load image, compression = zero_init]
                  00018fe8    00000008     (.cinit..TI.bound:dmaUart1TxControlTableEntry.load) [load image, compression = zero_init]
                  00018ff0    00000008     (.cinit..bss.1.load) [load image, compression = zero_init]
                  00018ff8    00000008     (.cinit..bss.2.load) [load image, compression = zero_init]
                  00019000    00000008     (.cinit..bss.3.load) [load image, compression = zero_init]
                  00019008    00000008     (.cinit..data:RAM_MAC_BASE_ADDR.load) [load image, compression = zero_init]
                  00019010    00000038     (__TI_cinit_table)

.init_array 
*          0    00000000    00000000     UNINITIALIZED

.text.1    0    0000003c    00000004     
                  0000003c    00000004     api_mac.o (.text.ApiMac_mlmeScanReq)

.text.2    0    000028d4    0001634c     
                  000028d4    000003d8     collector.o (.text.dataIndCB)
                  00002cac    000003c4     api_mac.o (.text.ApiMac_processIncoming)
                  00003070    000003b4     maclib_secure_cc13x2_tirtos7.a : mac_hl_patch.o (.text.macWrapperAddDevice)
                  00003424    0000030c                                    : mac.o (.text.macRxCb)
                  00003730    00000308                                    : mac_radio_tx.o (.text.macRadioCsmaTxCb)
                  00003a38    000002cc     cui.o (.text.CUI_processMenuUpdate)
                  00003d04    000002c4     collector.o (.text.Collector_process)
                  00003fc8    0000029c     rf_multiMode_cc13x2.a : RFCC26X2_multiMode.c.cc13x2.ticlang.o (.text.RF_open)
                  00004264    00000288     ti_sysbios_config.o (.text.ti_sysbios_runtime_System_doPrint)
                  000044ec    00000258     maclib_secure_cc13x2_tirtos7.a : mac_radio.o (.text.macRadioInitSubG)
                  00004744    00000244     macTask.o (.text.macTaskFxn)
                  00004988    00000240     csf.o (.text.setChMaskAction)
                  00004bc8    0000022c     maclib_secure_cc13x2_tirtos7.a : mac_radio_tx.o (.text.macRadioTxRequestTxAck)
                  00004df4    00000220                                    : mac.o (.text.macSendReceiveCmdSubG)
                  00005014    000001f0     drivers_cc13x2.a : UART2CC26X2.c.obj (.text.UART2CC26X2_hwiIntFxn)
                  00005204    000001f0     maclib_secure_cc13x2_tirtos7.a : mac_tx.o (.text.macTxFrame)
                  000053f4    000001f0     mac_settings.o (.text.rfSetConfigSubG)
                  000055e4    000001e8     rf_multiMode_cc13x2.a : RFCC26X2_multiMode.c.cc13x2.ticlang.o (.text.RF_scheduleCmd)
                  000057cc    000001e2     drivers_cc13x2.a : UART2.c.obj (.text.UART2_readTimeout)
                  000059ae    00000002     ti_sysbios_config.o (.text.BIOS_nullFunc)
                  000059b0    000001e0     nvocmp.o (.text.NVOCMP_addItem)
                  00005b90    000001dc     rf_multiMode_cc13x2.a : RFCC26X2_multiMode.c.cc13x2.ticlang.o (.text.RF_dispatchNextCmd)
                  00005d6c    000001dc     maclib_secure_cc13x2_tirtos7.a : mac.o (.text.macSendReceiveCmdIeee)
                  00005f48    000001d4     csf.o (.text.setNwkKeyAction)
                  0000611c    000001d0     maclib_secure_cc13x2_tirtos7.a : mac_hl_patch.o (.text.macWrapperAddKeyInitFCtr)
                  000062ec    000001ac                                    : mac_hl_patch.o (.text.macWrapperDeleteKeyAndAssociatedDevices)
                  00006498    000001a8     nvocmp.o (.text.NVOCMP_findItem)
                  00006640    000001a4     cui.o (.text.CUI_registerMenu)
                  000067e4    000001a4     maclib_secure_cc13x2_tirtos7.a : mac_hl_patch.o (.text.macIncomingFrameSecurityMaterialRetrieval)
                  00006988    00000194     drivers_cc13x2.a : PowerCC26X2_calibrateRCOSC.c.obj (.text.PowerCC26X2_auxISR)
                  00006b1c    00000190     maclib_secure_cc13x2_tirtos7.a : mac_hl_patch.o (.text.macWrapperDeleteDevice)
                  00006cac    00000188                                    : mac_hl_patch.o (.text.macIncomingFrameSecurity)
                  00006e34    00000188                                    : mac_hl_patch.o (.text.macRxBeaconCritical)
                  00006fbc    0000017c     drivers_cc13x2.a : UART2CC26X2.c.obj (.text.UART2_open)
                  00007138    00000178     maclib_secure_cc13x2_tirtos7.a : mac_hl_patch.o (.text.MAC_McpsDataReq)
                  000072b0    00000178                                    : mac_tx.o (.text.txCsmaDelay)
                  00007428    00000174     drivers_cc13x2.a : UART2.c.obj (.text.UART2_writeTimeoutBlocking)
                  0000759c    0000016c                      : AESCCMCC26XX.c.obj (.text.AESCCM_startOperation)
                  00007708    00000158                      : PowerCC26X2.c.obj (.text.Power_sleep)
                  00007860    00000150     maclib_secure_cc13x2_tirtos7.a : mac_hl_patch.o (.text.MAC_InitFH)
                  000079b0    0000014c                                    : mac_radio_tx.o (.text.macRadioLbtTxCb)
                  00007afc    0000014c     libc.a : strtol.c.obj (.text.strtol)
                  00007c48    00000148     rf_multiMode_cc13x2.a : RFCC26X2_multiMode.c.cc13x2.ticlang.o (.text.RF_radioOpDoneCb)
                  00007d90    0000013c     cui.o (.text.CUI_init)
                  00007ecc    0000013c     collector.o (.text.dataCnfCB)
                  00008008    00000138     maclib_secure_cc13x2_tirtos7.a : mac_radio.o (.text.macRadioInitIeee)
                  00008140    00000138                                    : mac_hl_patch.o (.text.macWrapperDeleteAllDevices)
                  00008278    00000134     rf_multiMode_cc13x2.a : RFCC26X2_multiMode.c.cc13x2.ticlang.o (.text.RF_ratSetupChannel)
                  000083ac    00000134     csf.o (.text.setPanIdAction)
                  000084e0    00000130     csf.o (.text.Csf_processEvents)
                  00008610    00000130     driverlib.lib : aes.o (.text.NOROM_AESWriteToKeyStore)
                  00008740    00000130     csf.o (.text.sensorSelectAction)
                  00008870    0000012c     rf_multiMode_cc13x2.a : RFCC26X2_multiMode.c.cc13x2.ticlang.o (.text.RF_close)
                  0000899c    0000012c                           : RFCC26X2_multiMode.c.cc13x2.ticlang.o (.text.RF_fsmSetupState)
                  00008ac8    0000012c     drivers_cc13x2.a : TRNGCC26XX.c.obj (.text.TRNGCC26XX_hwiFxn)
                  00008bf4    0000012c     maclib_secure_cc13x2_tirtos7.a : mac_hl_patch.o (.text.macScanNextChan)
                  00008d20    0000012c     ti_sysbios_config.o (.text.ti_sysbios_family_arm_cc26xx_Timer_construct)
                  00008e4c    0000012c     maclib_secure_cc13x2_tirtos7.a : mac_tx.o (.text.txComplete)
                  00008f78    00000128     cui.o (.text.CUI_statusLinePrintf)
                  000090a0    00000124     rf_multiMode_cc13x2.a : RFCC26X2_multiMode.c.cc13x2.ticlang.o (.text.RF_abortCmd)
                  000091c4    00000120     drivers_cc13x2.a : Button.c.obj (.text.Button_clockTimeoutHandler)
                  000092e4    00000120     cui.o (.text.CUI_dispMenu)
                  00009404    0000011c     sysbios.a : Hwi_asm_gnu.obj (.text.ti_sysbios_family_arm_m3_Hwi_dispatch)
                  00009520    0000011a     drivers_cc13x2.a : UART2.c.obj (.text.UART2_writeTimeoutNonblocking)
                  0000963a    00000002     ti_drivers_config.o (.text.Board_initHook)
                  0000963c    00000118     drivers_cc13x2.a : PowerCC26X2.c.obj (.text.Power_init)
                  00009754    00000118     rf_multiMode_cc13x2.a : RFCC26X2_multiMode.c.cc13x2.ticlang.o (.text.RF_decodeOverridePointers)
                  0000986c    00000118     maclib_secure_cc13x2_tirtos7.a : mac_duty_cycle.o (.text.macDutyCycleInit)
                  00009984    00000118     csf.o (.text.sensorSetReportInterval)
                  00009a9c    00000114     cllc.o (.text.Cllc_process)
                  00009bb0    00000110     csf.o (.text.Csf_init)
                  00009cc0    00000110     drivers_cc13x2.a : LED.c.obj (.text.LED_open)
                  00009dd0    0000010c                      : PowerCC26X2_calibrateRCOSC.c.obj (.text.PowerCC26X2_calibrate)
                  00009edc    00000108     nvocmp.o (.text.NVOCMP_cleanPage)
                  00009fe4    00000108     drivers_cc13x2.a : NVSCC26XX.c.obj (.text.NVSCC26XX_write)
                  0000a0ec    00000108     rf_multiMode_cc13x2.a : RFCC26X2_multiMode.c.cc13x2.ticlang.o (.text.RF_fsmPowerUpState)
                  0000a1f4    00000104     drivers_cc13x2.a : GPIOCC26X2.c.obj (.text.GPIO_init)
                  0000a2f8    00000104                      : UART2CC26X2.c.obj (.text.UART2CC26X2_initHw)
                  0000a3fc    00000100     maclib_secure_cc13x2_tirtos7.a : mac_hl_patch.o (.text.macOutgoingFrameKeyDescRetrieval)
                  0000a4fc    000000fc     rf_multiMode_cc13x2.a : RFCC26X2_multiMode.c.cc13x2.ticlang.o (.text.RF_hwiCpe0Active)
                  0000a5f8    000000fc     maclib_secure_cc13x2_tirtos7.a : mac_hl_patch.o (.text.macBuildDataFrame)
                  0000a6f4    000000f8     drivers_cc13x2.a : TRNGCC26XX.c.obj (.text.TRNG_getRandom)
                  0000a7ec    000000f8     maclib_secure_cc13x2_tirtos7.a : mac_tx.o (.text.macTxChannelBusyCallback)
                  0000a8e4    000000f4     cui.o (.text.CUI_statusLineResourceRequest)
                  0000a9d8    000000f4     driverlib.lib : sys_ctrl.o (.text.NOROM_SysCtrlStandby)
                  0000aacc    000000f4     maclib_secure_cc13x2_tirtos7.a : mac.o (.text.macSetupRATChanCompare)
                  0000abc0    000000f0     drivers_cc13x2.a : UART2CC26X2.c.obj (.text.UART2Support_dmaStartRx)
                  0000acb0    000000ec     macTask.o (.text.MAC_CbackEvent)
                  0000ad9c    000000e8     maclib_secure_cc13x2_tirtos7.a : mac_radio_tx.o (.text.macRadioTxAckCb)
                  0000ae84    000000e8                                    : mac_radio_tx.o (.text.macRadioTxPrepCsmaSlottedSubG)
                  0000af6c    000000e8                                    : mac_tx.o (.text.txCsmaPrep)
                  0000b054    000000e4     driverlib.lib : setup.o (.text.NOROM_SetupTrimDevice)
                  0000b138    000000e4     ti_sysbios_config.o (.text.ti_sysbios_knl_Semaphore_pend)
                  0000b21c    000000e0     maclib_secure_cc13x2_tirtos7.a : mac_hl_patch.o (.text.macEdScanISR)
                  0000b2fc    000000dc     drivers_cc13x2.a : Button.c.obj (.text.Button_open)
                  0000b3d8    000000dc     rf_multiMode_cc13x2.a : RFCC26X2_multiMode.c.cc13x2.ticlang.o (.text.RF_control)
                  0000b4b4    000000dc     ti_sysbios_config.o (.text.pthread_create)
                  0000b590    000000d8     maclib_secure_cc13x2_tirtos7.a : mac_hl_patch.o (.text.macOutgoingFrameSecurity)
                  0000b668    000000d4     csf.o (.text.Csf_deviceUpdate)
                  0000b73c    000000d0     drivers_cc13x2.a : PowerCC26X2.c.obj (.text.configureXOSCHF)
                  0000b80c    000000d0     maclib_secure_cc13x2_tirtos7.a : mac_hl_patch.o (.text.macApiStartReq)
                  0000b8dc    000000d0                                    : mac_hl_patch.o (.text.macBuildHeaderIes)
                  0000b9ac    000000d0                                    : mac_hl_patch.o (.text.macCcmStarTransform)
                  0000ba7c    000000d0                                    : mac_symbol_timer.o (.text.macSymbolTimerUpdateWakeup)
                  0000bb4c    000000cc     cllc.o (.text.Cllc_restoreNetwork)
                  0000bc18    000000cc     collector.o (.text.Collector_sendConfigRequest)
                  0000bce4    000000cc     maclib_secure_cc13x2_tirtos7.a : mac_hl_patch.o (.text.macMgmtReset)
                  0000bdb0    000000cc                                    : mac_tx.o (.text.macTxRequestCsmaDelay)
                  0000be7c    000000cc     collector.o (.text.sendMsg)
                  0000bf48    000000cc     ti_sysbios_config.o (.text.ti_sysbios_knl_Clock_workFuncDynamic)
                  0000c014    000000ca     rf_multiMode_cc13x2.a : RFCC26X2_multiMode.c.cc13x2.ticlang.o (.text.RF_updatePaConfiguration)
                  0000c0de    00000002     csf.o (.text.Csf_toggleResponseReceived)
                  0000c0e0    000000c8     maclib_secure_cc13x2_tirtos7.a : mac_hl_patch.o (.text.macScanRxCoordRealign)
                  0000c1a8    000000c8                                    : mac_tx.o (.text.macTxRequestCsmaRtcDelay)
                  0000c270    000000c4                                    : fh_ie_patch.o (.text.FHDATA_CheckMinTxOffTime)
                  0000c334    000000c4     driverlib.lib : setup.o (.text.TrimAfterColdResetWakeupFromShutDown)
                  0000c3f8    000000c4     maclib_secure_cc13x2_tirtos7.a : mac_duty_cycle.o (.text.macDutyCycleNotify)
                  0000c4bc    000000c4                                    : mac_timer.o (.text.macSymbolTimerTriggerCallback)
                  0000c580    000000c4     csf.o (.text.updateCollectorStatusLine)
                  0000c644    000000bc     collector.o (.text.Collector_init)
                  0000c700    000000bc     rf_multiMode_cc13x2.a : RFCC26X2_multiMode.c.cc13x2.ticlang.o (.text.RF_swiHw)
                  0000c7bc    000000bc     drivers_cc13x2.a : UART2CC26X2.c.obj (.text.UART2Support_dmaStartTx)
                  0000c878    000000b8     cllc.o (.text.assocIndCb)
                  0000c930    000000b8     maclib_secure_cc13x2_tirtos7.a : mac_hl_patch.o (.text.macDataTxComplete)
                  0000c9e8    000000b8     ti_sysbios_config.o (.text.ti_sysbios_knl_Task_Instance_finalize)
                  0000caa0    000000b4     maclib_secure_cc13x2_tirtos7.a : mac_hl_patch.o (.text.MAC_MlmeScanReq)
                  0000cb54    000000b4     driverlib.lib : osc.o (.text.NOROM_OSCHF_AttemptToSwitchToXosc)
                  0000cc08    000000b4     ti_sysbios_config.o (.text.PowerCC26XX_standbyPolicy)
                  0000ccbc    000000b4     drivers_cc13x2.a : PowerCC26X2.c.obj (.text.Power_releaseDependency)
                  0000cd70    000000b4     maclib_secure_cc13x2_tirtos7.a : mac_hl_patch.o (.text.macBeaconCheckTxTime)
                  0000ce24    000000b4                                    : mac_rx.o (.text.macRxInit)
                  0000ced8    000000b2     api_mac.o (.text.copyDataInd)
                  0000cf8a    00000002     rf_multiMode_cc13x2.a : rfc.c.cc13x2.ticlang.o (.text.NOROM_RFCCpePatchReset)
                  0000cf8c    000000b0     csf.o (.text.Csf_deviceSensorDataUpdate)
                  0000d03c    000000b0     drivers_cc13x2.a : PowerCC26X2.c.obj (.text.Power_setDependency)
                  0000d0ec    000000b0     maclib_secure_cc13x2_tirtos7.a : mac_hl_patch.o (.text.macApiBeaconStartReq)
                  0000d19c    000000b0                                    : mac_hl_patch.o (.text.macAutoPoll)
                  0000d24c    000000b0                                    : mac_tx.o (.text.macTxStartQueuedFrame)
                  0000d2fc    000000b0     ti_sysbios_config.o (.text.ti_sysbios_knl_Task_setPri)
                  0000d3ac    000000b0     libclang_rt.builtins.a : udivmoddi4.S.obj (.text)
                  0000d45c    000000ac     rf_multiMode_cc13x2.a : RFCC26X2_multiMode.c.cc13x2.ticlang.o (.text.RF_pendCmd)
                  0000d508    000000ac     maclib_secure_cc13x2_tirtos7.a : mac.o (.text.macGetRFCmdDuration)
                  0000d5b4    000000ac                                    : mac_radio_tx.o (.text.macRadioFHEncryptFrame)
                  0000d660    000000ac                                    : mac_symbol_timer.o (.text.macSymbolTimerInit)
                  0000d70c    000000a4     api_mac.o (.text.ApiMac_mlmeSetReqArray)
                  0000d7b0    000000a4     maclib_osal_tirtos7_cc13x2_26x2.a : osal_port.o (.text.OsalPort_heapMalloc)
                  0000d854    000000a4     rf_multiMode_cc13x2.a : RFCC26X2_multiMode.c.cc13x2.ticlang.o (.text.RF_initRadioSetup)
                  0000d8f8    000000a4     maclib_secure_cc13x2_tirtos7.a : mac_hl_patch.o (.text.macTrackTimeoutCallback)
                  0000d99c    000000a4                                    : mac_radio.o (.text.scheduleNopWakeupCmd)
                  0000da40    000000a4     ti_sysbios_config.o (.text.ti_sysbios_knl_Task_Instance_init)
                  0000dae4    000000a0     nvocmp.o (.text.NVOCMP_readContItemApi)
                  0000db84    000000a0     rf_multiMode_cc13x2.a : RFCC26X2_multiMode.c.cc13x2.ticlang.o (.text.RF_calculateDispatchTime)
                  0000dc24    000000a0                           : RFCC26X2_multiMode.c.cc13x2.ticlang.o (.text.RF_requestAccess)
                  0000dcc4    000000a0     maclib_secure_cc13x2_tirtos7.a : mac_hl_patch.o (.text.macBlacklistChecking)
                  0000dd64    0000009c                                    : mac_hl_patch.o (.text.macAutoPendAddSrcMatchTableEntry)
                  0000de00    0000009a     drivers_cc13x2.a : UART2.c.obj (.text.UART2_writeCancel)
                  0000de9a    00000002     rf_multiMode_cc13x2.a : RFCC26X2_multiMode.c.cc13x2.ticlang.o (.text.RF_defaultCallback)
                  0000de9c    00000098     nvocmp.o (.text.NVOCMP_erase)
                  0000df34    00000098     rf_multiMode_cc13x2.a : RFCC26X2_multiMode.c.cc13x2.ticlang.o (.text.RF_defaultSubmitPolicy)
                  0000dfcc    00000098     drivers_cc13x2.a : UART2CC26X2.c.obj (.text.UART2_close)
                  0000e064    00000098     maclib_secure_cc13x2_tirtos7.a : mac_hl_patch.o (.text.macCcmStarInverseTransform)
                  0000e0fc    00000098                                    : mac_hl_patch.o (.text.macIncomingSecurityLevelChecking)
                  0000e194    00000098                                    : mac.o (.text.macStopCmd)
                  0000e22c    00000096     rf_multiMode_cc13x2.a : RFCC26X2_multiMode.c.cc13x2.ticlang.o (.text.RF_verifyGap)
                  0000e2c2    00000002     drivers_cc13x2.a : UART2CC26X2.c.obj (.text.UART2CC26X2_eventCallback)
                  0000e2c4    00000094     maclib_secure_cc13x2_tirtos7.a : mac_autopend.o (.text.MAC_SrcMatchAddEntry)
                  0000e358    00000094     rf_multiMode_cc13x2.a : RFCC26X2_multiMode.c.cc13x2.ticlang.o (.text.RF_ratRestartChannels)
                  0000e3ec    00000094     maclib_secure_cc13x2_tirtos7.a : mac_hl_patch.o (.text.macCcmDecrypt)
                  0000e480    00000094                                    : mac_radio.o (.text.macRadioUpdateChannel)
                  0000e514    00000094                                    : mac_timer.o (.text.macTimerUpdateSymbolTimer)
                  0000e5a8    00000094     ti_sysbios_config.o (.text.ti_sysbios_knl_Clock_startI)
                  0000e63c    00000090     nvocmp.o (.text.NVOCMP_getDstPage)
                  0000e6cc    00000090     nvocmp.o (.text.NVOCMP_updateItemApi)
                  0000e75c    00000090     maclib_secure_cc13x2_tirtos7.a : mac_hl_patch.o (.text.macCcmEncrypt)
                  0000e7ec    00000090                                    : mac_radio_tx.o (.text.macRadioSendImmAck)
                  0000e87c    00000090                                    : mac_radio_tx.o (.text.macRadioTxEnhAckCb)
                  0000e90c    00000090                                    : mac_radio.o (.text.macRadioUpdateChannelRx)
                  0000e99c    00000090                                    : mac_sleep.o (.text.macSleep)
                  0000ea2c    00000090                                    : mac_autopend.o (.text.macSrcMatchCheckSrcAddr)
                  0000eabc    00000090                                    : mac_tx.o (.text.macTxDoneCallback)
                  0000eb4c    0000008c     cui.o (.text.CUI_clientOpen)
                  0000ebd8    0000008c     drivers_cc13x2.a : GPIOCC26XX.c.obj (.text.GPIO_setConfig)
                  0000ec64    0000008c                      : TRNGCC26XX.c.obj (.text.TRNG_construct)
                  0000ecf0    0000008c     ti_sysbios_config.o (.text.ti_sysbios_knl_Clock_init)
                  0000ed7c    00000088     cllc.o (.text.Cllc_init)
                  0000ee04    00000088     csf.o (.text.Csf_getDeviceItem)
                  0000ee8c    00000088     nvocmp.o (.text.NVOCMP_deleteItemApi)
                  0000ef14    00000088     rf_multiMode_cc13x2.a : RFCC26X2_multiMode.c.cc13x2.ticlang.o (.text.RF_cmdDispatchTime)
                  0000ef9c    00000088                           : RFCC26X2_multiMode.c.cc13x2.ticlang.o (.text.RF_discardPendCmd)
                  0000f024    00000088     maclib_secure_cc13x2_tirtos7.a : mac_pwr.o (.text.macPwrVote)
                  0000f0ac    00000088                                    : mac_radio.o (.text.macRadioStartScan)
                  0000f134    00000088     macTask.o (.text.macTaskInit)
                  0000f1bc    00000084     nvocmp.o (.text.NVOCMP_readHeader)
                  0000f240    00000084     rf_multiMode_cc13x2.a : RFCC26X2_multiMode.c.cc13x2.ticlang.o (.text.RF_getInfo)
                  0000f2c4    00000084                           : RFCC26X2_multiMode.c.cc13x2.ticlang.o (.text.RF_yield)
                  0000f348    00000084     maclib_secure_cc13x2_tirtos7.a : mac_hl_patch.o (.text.macKeyDescriptorLookup)
                  0000f3cc    00000084                                    : mac_mcu.o (.text.macMcuOverflowSetPeriod)
                  0000f450    00000084                                    : mac.o (.text.macSetupReceiveCmd)
                  0000f4d4    00000084                                    : mac_hl_patch.o (.text.macTrackStartCallback)
                  0000f558    00000084     main.o (.text.main)
                  0000f5dc    00000084     ti_sysbios_config.o (.text.ti_sysbios_family_arm_m3_Hwi_initNVIC)
                  0000f660    00000080     driverlib.lib : sys_ctrl.o (.text.NOROM_SysCtrlSetRechargeBeforePowerDown)
                  0000f6e0    00000080     nvocmp.o (.text.NVOCMP_createItemApi)
                  0000f760    00000080     nvocmp.o (.text.NVOCMP_getFreeNvApi)
                  0000f7e0    00000080     maclib_osal_tirtos7_cc13x2_26x2.a : osal_port.o (.text.OsalPort_setTimer)
                  0000f860    00000080     drivers_cc13x2.a : UART2CC26X2.c.obj (.text.UART2Support_dmaStopTx)
                  0000f8e0    00000080                      : NVSCC26XX.c.obj (.text.doErase)
                  0000f960    00000080     ti_sysbios_config.o (.text.ti_sysbios_family_arm_m3_Hwi_postInit)
                  0000f9e0    00000080     ti_sysbios_config.o (.text.ti_sysbios_gates_GateMutexPri_enter)
                  0000fa60    0000007e     driverlib.lib : chipinfo.o (.text.NOROM_ChipInfo_GetChipType)
                  0000fade    00000002     libclang_rt.builtins.a : aeabi_div0.c.obj (.text.__aeabi_ldiv0)
                  0000fae0    0000007c     cllc.o (.text.Cllc_securityInit)
                  0000fb5c    0000007c     maclib_secure_cc13x2_tirtos7.a : mac_hl_patch.o (.text.MAC_ResumeReq)
                  0000fbd8    0000007c     maclib_osal_tirtos7_cc13x2_26x2.a : osal_port.o (.text.OsalPort_heapInit)
                  0000fc54    0000007c     rf_multiMode_cc13x2.a : RFCC26X2_multiMode.c.cc13x2.ticlang.o (.text.RF_ratDisableChannel)
                  0000fcd0    0000007c     maclib_secure_cc13x2_tirtos7.a : mac_mcu.o (.text.macMcuOverflowSetCompare)
                  0000fd4c    00000078     csf.o (.text.Csf_getDeviceExtAdd)
                  0000fdc4    00000078     driverlib.lib : osc.o (.text.NOROM_OSCHF_SwitchToRcOscTurnOffXosc)
                  0000fe3c    00000078                   : osc.o (.text.NOROM_OSC_CapArrayAdjustWorkaround_Boot)
                  0000feb4    00000078     nvocmp.o (.text.NVOCMP_checkItem)
                  0000ff2c    00000078     nvocmp.o (.text.NVOCMP_loadApiPtrs)
                  0000ffa4    00000078     drivers_cc13x2.a : NVSCC26XX.c.obj (.text.NVSCC26XX_open)
                  0001001c    00000078     rf_multiMode_cc13x2.a : RFCC26X2_multiMode.c.cc13x2.ticlang.o (.text.RF_ratFreeChannel)
                  00010094    00000078     ti_sysbios_config.o (.text._pthread_removeThreadKeys)
                  0001010c    00000078     cllc.o (.text.beaconNotifyIndCb)
                  00010184    00000078     maclib_secure_cc13x2_tirtos7.a : mac.o (.text.macRequestBackoff)
                  000101fc    00000078                                    : mac_timer.o (.text.macTimerRealign)
                  00010274    00000078     cllc.o (.text.maintainAssocTable)
                  000102ec    00000078     ti_sysbios_config.o (.text.ti_sysbios_knl_Task_postInit)
                  00010364    00000074     csf.o (.text.Csf_sendDisassociateMsg)
                  000103d8    00000074     drivers_cc13x2.a : PowerCC26X2_calibrateRCOSC_helpers.c.obj (.text.PowerCC26X2_updateSubSecInc)
                  0001044c    00000074     rf_multiMode_cc13x2.a : RFCC26X2_multiMode.c.cc13x2.ticlang.o (.text.RF_hwiHw)
                  000104c0    00000074     ti_sysbios_config.o (.text.acquireMutex)
                  00010534    00000074     maclib_secure_cc13x2_tirtos7.a : mac.o (.text.macSetupFsCmd)
                  000105a8    00000074                                    : mac_timer.o (.text.macTimerSetRollover)
                  0001061c    00000074     ti_sysbios_config.o (.text.ti_sysbios_family_arm_m3_Hwi_Instance_init)
                  00010690    00000074     ti_sysbios_config.o (.text.ti_sysbios_knl_Swi_restoreHwi)
                  00010704    00000070     drivers_cc13x2.a : AESCCMCC26XX.c.obj (.text.AESCCM_cleanup)
                  00010774    00000070     api_mac.o (.text.ApiMac_init)
                  000107e4    00000070     csf.o (.text.Csf_updateFrameCounter)
                  00010854    00000070     maclib_secure_cc13x2_tirtos7.a : fh_ie_patch.o (.text.FHDATA_getASYNCDelay)
                  000108c4    00000070     nvocmp.o (.text.NVOCMP_readItemApi)
                  00010934    00000070     nvocmp.o (.text.NVOCMP_writeItemApi)
                  000109a4    00000070     maclib_osal_tirtos7_cc13x2_26x2.a : osal_port.o (.text.OsalPort_pwrmgrTaskState)
                  00010a14    00000070     rf_multiMode_cc13x2.a : RFCC26X2_multiMode.c.cc13x2.ticlang.o (.text.RF_getTxPower)
                  00010a84    00000070     maclib_secure_cc13x2_tirtos7.a : mac_duty_cycle.o (.text.macDutyCycleTimerCB)
                  00010af4    00000070                                    : mac_radio.o (.text.macRadioPowerDown)
                  00010b64    00000070                                    : mac_rx.o (.text.macRxHaltCleanup)
                  00010bd4    00000070                                    : mac_rx_onoff.o (.text.macRxOffRequest)
                  00010c44    00000070                                    : mac_symbol_timer.o (.text.macSymbolTimerPeriodIsr)
                  00010cb4    00000070     cllc.o (.text.scanCnfCb)
                  00010d24    00000070     ti_sysbios_config.o (.text.ti_sysbios_knl_Task_startup)
                  00010d94    00000070     ti_sysbios_config.o (.text.ti_sysbios_runtime_System_formatNum)
                  00010e04    0000006e     drivers_cc13x2.a : LED.c.obj (.text.LED_startBlinking)
                  00010e72    00000002     libc.a : _lock.c.obj (.text._nop)
                  00010e74    0000006c     csf.o (.text.Csf_clearAllNVItems)
                  00010ee0    0000006c     csf.o (.text.Csf_getDevice)
                  00010f4c    0000006c     nvocmp.o (.text.NVOCMP_eraseNvApi)
                  00010fb8    0000006c     rf_multiMode_cc13x2.a : RFCC26X2_multiMode.c.cc13x2.ticlang.o (.text.RF_issueRadioFreeCb)
                  00011024    0000006c     drivers_cc13x2.a : Random.c.obj (.text.Random_seedAutomatic)
                  00011090    0000006c     main.o (.text.appTaskFxn)
                  000110fc    0000006c     maclib_secure_cc13x2_tirtos7.a : mac_low_level.o (.text.macLowLevelInit)
                  00011168    0000006c                                    : mac_mcu.o (.text.macMcuInit)
                  000111d4    0000006c                                    : mac_radio_tx.o (.text.macRadioTxPrepLbt)
                  00011240    0000006c                                    : mac_tx.o (.text.macTxGetDefaultMinTxOffTime)
                  000112ac    0000006c     cllc.o (.text.orphanIndCb)
                  00011318    0000006c     ti_sysbios_config.o (.text.ti_sysbios_family_arm_m3_Hwi_dispatchC)
                  00011384    0000006a     nvocmp.o (.text.NVOCMP_verifyCRC)
                  000113ee    0000006a     libc.a : copy_decompress_lzss.c.obj (.text:decompress:lzss)
                  00011458    00000068     maclib_secure_cc13x2_tirtos7.a : fh_ie_patch.o (.text.FHIE_getCcaSfdTime)
                  000114c0    00000068     rf_multiMode_cc13x2.a : RFCC26X2_multiMode.c.cc13x2.ticlang.o (.text.RF_detachOverrides)
                  00011528    00000068     drivers_cc13x2.a : UART2CC26X2.c.obj (.text.UART2Support_dmaStopRx)
                  00011590    00000068     maclib_secure_cc13x2_tirtos7.a : mac_radio_tx.o (.text.macRadioTxPrepSlotted)
                  000115f8    00000068                                    : mac_rx_onoff.o (.text.macRxOn)
                  00011660    00000068                                    : mac.o (.text.macSetTxPowerVal)
                  000116c8    00000068                                    : mac_timer.o (.text.macTimerGetNextTimer)
                  00011730    00000068     ti_sysbios_config.o (.text.ti_sysbios_knl_Swi_run)
                  00011798    00000064     drivers_cc13x2.a : AESCCMCC26XX.c.obj (.text.AESCCM_hwiFxn)
                  000117fc    00000064     maclib_osal_tirtos7_cc13x2_26x2.a : osal_port.o (.text.OsalPort_clearEvent)
                  00011860    00000064     drivers_cc13x2.a : PowerCC26X2_calibrateRCOSC.c.obj (.text.PowerCC26X2_initiateCalibration)
                  000118c4    00000064     rf_multiMode_cc13x2.a : RFCC26X2_multiMode.c.cc13x2.ticlang.o (.text.RF_attachOverrides)
                  00011928    00000064                           : RFCC26X2_multiMode.c.cc13x2.ticlang.o (.text.RF_dispatchNextEvent)
                  0001198c    00000064                           : RFCC26X2_multiMode.c.cc13x2.ticlang.o (.text.RF_hwiCpe0PowerFsm)
                  000119f0    00000064     drivers_cc13x2.a : UDMACC26XX.c.obj (.text.UDMACC26XX_open)
                  00011a54    00000064     maclib_secure_cc13x2_tirtos7.a : mac_radio_tx.o (.text.macRadioTxGoLbt)
                  00011ab8    00000064                                    : mac_timer.o (.text.macTimerAddTimer)
                  00011b1c    00000064                                    : mac_hl_patch.o (.text.macTrackPeriodCallback)
                  00011b80    00000064     drivers_cc13x2.a : PowerCC26X2.c.obj (.text.oscillatorISR)
                  00011be4    00000064     ti_sysbios_config.o (.text.ti_sysbios_gates_GateMutexPri_leave)
                  00011c48    00000064     ti_sysbios_config.o (.text.ti_sysbios_knl_Idle_init)
                  00011cac    00000064     ti_sysbios_config.o (.text.ti_sysbios_knl_TaskSupport_buildTaskStack)
                  00011d10    00000062     rf_multiMode_cc13x2.a : RFCC26X2_multiMode.c.cc13x2.ticlang.o (.text.RF_syncCb)
                  00011d72    00000002     drivers_cc13x2.a : PowerCC26X2.c.obj (.text.emptyClockFunc)
                  00011d74    00000060                      : CryptoResourceCC26XX.c.obj (.text.CryptoResourceCC26XX_constructRTOSObjects)
                  00011dd4    00000060     maclib_osal_tirtos7_cc13x2_26x2.a : osal_port.o (.text.OsalPort_setEvent)
                  00011e34    00000060     csf.o (.text.findDeviceListIndex)
                  00011e94    00000060     maclib_secure_cc13x2_tirtos7.a : mac_radio.o (.text.macRadioWakeupCb)
                  00011ef4    00000060                                    : mac_timer.o (.text.macSymbolTimerRolloverCallback)
                  00011f54    00000060                                    : mac_timer.o (.text.macTimerCancel)
                  00011fb4    00000060     ti_sysbios_config.o (.text.pthread_exit)
                  00012014    00000060     ti_sysbios_config.o (.text.ti_sysbios_knl_Clock_walkQueueDynamic)
                  00012074    00000060     ti_sysbios_config.o (.text.ti_sysbios_knl_Semaphore_post)
                  000120d4    00000060     ti_sysbios_config.o (.text.ti_sysbios_knl_Swi_schedule)
                  00012134    0000005e     rf_multiMode_cc13x2.a : rfc.c.cc13x2.ticlang.o (.text.NOROM_RFCAnaDivTxOverride)
                  00012192    00000002     drivers_cc13x2.a : CryptoResourceCC26XX.c.obj (.text.errorSpin)
                  00012194    0000005c     maclib_osal_tirtos7_cc13x2_26x2.a : osal_port.o (.text.OsalPort_msgReceive)
                  000121f0    0000005c     drivers_cc13x2.a : TRNGCC26XX.c.obj (.text.TRNGCC26XX_startTrng)
                  0001224c    0000005c     maclib_secure_cc13x2_tirtos7.a : mac_sleep.o (.text.macCanSleep)
                  000122a8    0000005c                                    : mac_radio.o (.text.macRadioSetChannel)
                  00012304    0000005c                                    : mac_radio_tx.o (.text.macRadioTxBackoffBoundary)
                  00012360    0000005c                                    : mac.o (.text.macRequestSFDTimeout)
                  000123bc    0000005c                                    : mac_symbol_timer.o (.text.macSymbolTimerEventHandler)
                  00012418    0000005c     collector.o (.text.processDataRetry)
                  00012474    0000005c     maclib_secure_cc13x2_tirtos7.a : mac_rx.o (.text.rxPostRxUpdates)
                  000124d0    00000058     drivers_cc13x2.a : Button.c.obj (.text.Button_gpioCallbackFxn)
                  00012528    00000058     cui.o (.text.CUI_writeString)
                  00012580    00000058     cllc.o (.text.Cllc_removeDevice)
                  000125d8    00000058     csf.o (.text.Csf_getFrameCounter)
                  00012630    00000058     maclib_osal_tirtos7_cc13x2_26x2.a : osal_port.o (.text.HEAPMGR_GETLARGESTFREEBUF)
                  00012688    00000058                                       : osal_port.o (.text.OsalPort_msgSend)
                  000126e0    00000058     rf_multiMode_cc13x2.a : RFCC26X2_multiMode.c.cc13x2.ticlang.o (.text.RF_applyRfCorePatch)
                  00012738    00000058     drivers_cc13x2.a : TRNGCC26XX.c.obj (.text.TRNG_init)
                  00012790    00000058     csf.o (.text.formNwkAndUpdateUser)
                  000127e8    00000058     maclib_secure_cc13x2_tirtos7.a : mac_radio.o (.text.macRadioSetChannelRx)
                  00012840    00000058                                    : mac_radio_tx.o (.text.macRadioTxPrepCsmaSlottedIeee)
                  00012898    00000058                                    : mac_radio.o (.text.macRadioUpdateTxPower)
                  000128f0    00000058     sysbios.a : Hwi_asm_switch_gnu.obj (.text.ti_sysbios_family_arm_m3_Hwi_initStacks)
                  00012948    00000056     drivers_cc13x2.a : StructRingBuf.c.obj (.text.StructRingBuf_put)
                  0001299e    00000056                      : UART2.c.obj (.text.UART2_readCancel)
                  000129f4    00000056     maclib_osal_tirtos7_cc13x2_26x2.a : util_timer.o (.text.UtilTimer_construct)
                  00012a4a    00000002     maclib_secure_cc13x2_tirtos7.a : mac_pwr.o (.text.macApiPwrOnReq)
                  00012a4c    00000054     drivers_cc13x2.a : AESCCMCC26XX.c.obj (.text.AESCCM_construct)
                  00012aa0    00000054     nvocmp.o (.text.NVOCMP_compactNvApi)
                  00012af4    00000054     nvocmp.o (.text.NVOCMP_getItemLenApi)
                  00012b48    00000054     rf_multiMode_cc13x2.a : RFCC26X2_multiMode.c.cc13x2.ticlang.o (.text.RF_fsmXOSCState)
                  00012b9c    00000054                           : RFCC26X2_multiMode.c.cc13x2.ticlang.o (.text.RF_getCurrentTime)
                  00012bf0    00000054     maclib_secure_cc13x2_tirtos7.a : mac_duty_cycle.o (.text.macDutyCycleByteToUSec)
                  00012c44    00000054                                    : mac_tx.o (.text.macTxAckReceivedCallback)
                  00012c98    00000054     cllc.o (.text.sendStartReq)
                  00012cec    00000052     driverlib.lib : chipinfo.o (.text.NOROM_ChipInfo_GetHwRevision)
                  00012d3e    00000002     maclib_secure_cc13x2_tirtos7.a : mac_mcu.o (.text.macMcuBitReverse)
                  00012d40    00000050     ti_drivers_config.o (.text.Board_shutDownExtFlash)
                  00012d90    00000050     rf_multiMode_cc13x2.a : RFCC26X2_multiMode.c.cc13x2.ticlang.o (.text.RF_wakeupNotification)
                  00012de0    00000050     maclib_secure_cc13x2_tirtos7.a : mac_radio.o (.text.macGetRadioTxPowerReg)
                  00012e30    00000050                                    : mac_radio_tx.o (.text.macRadioSendEnhAck)
                  00012e80    00000050     cllc.o (.text.sendScanReq)
                  00012ed0    00000050     collector.o (.text.sendTrackingRequest)
                  00012f20    00000050     ti_sysbios_config.o (.text.ti_sysbios_knl_Swi_Instance_init)
                  00012f70    00000050     ti_sysbios_config.o (.text.ti_sysbios_knl_Swi_post)
                  00012fc0    00000050     ti_sysbios_config.o (.text.ti_sysbios_knl_Swi_runLoop)
                  00013010    0000004e     ti_drivers_config.o (.text.Board_sendExtFlashByte)
                  0001305e    0000004e     nvocmp.o (.text.NVOCMP_readItem)
                  000130ac    0000004c     ti_sysbios_config.o (.text.BIOS_startFunc)
                  000130f8    0000004c     csf.o (.text.Csf_networkUpdate)
                  00013144    0000004c     maclib_secure_cc13x2_tirtos7.a : mac_autopend.o (.text.MAC_SrcMatchEnable)
                  00013190    0000004c     driverlib.lib : osc.o (.text.NOROM_OSC_HPOSCRelativeFrequencyOffsetGet)
                  000131dc    0000004c     nvocmp.o (.text.NVOCMP_setItemInactive)
                  00013228    0000004c     drivers_cc13x2.a : NVSCC26XX.c.obj (.text.NVSCC26XX_init)
                  00013274    0000004c                      : NVSCC26XX.c.obj (.text.NVSCC26XX_read)
                  000132c0    0000004c                      : StructRingBuf.c.obj (.text.StructRingBuf_get)
                  0001330c    0000004c     maclib_secure_cc13x2_tirtos7.a : mac_low_level.o (.text.macLowLevelYield)
                  00013358    0000004c                                    : mac_radio_tx.o (.text.macRadioTxHandleAck)
                  000133a4    0000004c                                    : mac_radio_tx.o (.text.macRadioTxPrepCsmaUnslottedSubG)
                  000133f0    0000004c                                    : mac.o (.text.macSendFsCmd)
                  0001343c    0000004c                                    : mac_hl_patch.o (.text.macSetDefaultsByPatch)
                  00013488    0000004c                                    : mac_timer.o (.text.macTimerUpdActive)
                  000134d4    0000004c     drivers_cc13x2.a : PowerCC26X2.c.obj (.text.switchXOSCHF)
                  00013520    00000048     driverlib.lib : aux_sysif.o (.text.NOROM_AUXSYSIFOpModeChange)
                  00013568    00000048     rf_multiMode_cc13x2.a : rfc.c.cc13x2.ticlang.o (.text.NOROM_RFCSynthPowerDown)
                  000135b0    00000048     drivers_cc13x2.a : NVS.c.obj (.text.NVS_open)
                  000135f8    00000048     maclib_osal_tirtos7_cc13x2_26x2.a : osal_port.o (.text.OsalPort_heapFree)
                  00013640    00000048     drivers_cc13x2.a : PowerCC26X2.c.obj (.text.PowerCC26XX_switchXOSC_HF)
                  00013688    00000048                      : UART2.c.obj (.text.UART2_readFull)
                  000136d0    00000048     maclib_secure_cc13x2_tirtos7.a : mac_hl_patch.o (.text.macIncomingKeyUsagePolicyChecking)
                  00013718    00000048                                    : mac_rx_onoff.o (.text.macRxDisable)
                  00013760    00000048     ti_sysbios_config.o (.text.ti_sysbios_family_arm_cc26xx_Timer_start)
                  000137a8    00000048     ti_sysbios_config.o (.text.ti_sysbios_knl_Task_schedule)
                  000137f0    00000046     drivers_cc13x2.a : RingBuf.c.obj (.text.RingBuf_put)
                  00013836    00000002     maclib_secure_cc13x2_tirtos7.a : mac_radio.o (.text.macRadioSetRE)
                  00013838    00000044     ti_sysbios_config.o (.text.BIOS_atExitFunc)
                  0001387c    00000044     cui.o (.text.CUI_menuActionHelp)
                  000138c0    00000044     cllc.o (.text.Cllc_addSecDevice)
                  00013904    00000044     collector.o (.text.Collector_sendDeviceTypeRequest)
                  00013948    00000044     collector.o (.text.Collector_sendToggleLedRequest)
                  0001398c    00000044     csf.o (.text.Csf_stateChangeUpdate)
                  000139d0    00000044     maclib_secure_cc13x2_tirtos7.a : fh_ie_patch.o (.text.FHNT_delTempIndex)
                  00013a14    00000044     drivers_cc13x2.a : GPIOCC26X2.c.obj (.text.GPIO_hwiIntFxn)
                  00013a58    00000044     driverlib.lib : prcm.o (.text.NOROM_PRCMPowerDomainsAllOff)
                  00013a9c    00000044                   : prcm.o (.text.NOROM_PRCMPowerDomainsAllOn)
                  00013ae0    00000044     drivers_cc13x2.a : PWM.c.obj (.text.PWM_init)
                  00013b24    00000044     rf_multiMode_cc13x2.a : RFCC26X2_multiMode.c.cc13x2.ticlang.o (.text.RF_TxPowerTable_findValue)
                  00013b68    00000044                           : RFCC26X2_multiMode.c.cc13x2.ticlang.o (.text.RF_cmdGet)
                  00013bac    00000044                           : RFCC26X2_multiMode.c.cc13x2.ticlang.o (.text.RF_updatePowerupDuration)
                  00013bf0    00000044     api_mac.o (.text.convertTxOptions)
                  00013c34    00000044     maclib_secure_cc13x2_tirtos7.a : mac_radio.o (.text.macRadioSetPanCoordinator)
                  00013c78    00000044                                    : mac.o (.text.macRatDisableChannels)
                  00013cbc    00000044                                    : mac_rx.o (.text.macRxNokIsr)
                  00013d00    00000044                                    : mac_symbol_timer.o (.text.macSymbolTimerRealignIeee)
                  00013d44    00000044                                    : mac_symbol_timer.o (.text.macSymbolTimerRealignSubG)
                  00013d88    00000044                                    : mac_tx.o (.text.macTxUpdateIE)
                  00013dcc    00000044     ti_sysbios_config.o (.text.ti_sysbios_family_arm_m3_Hwi_Instance_finalize)
                  00013e10    00000044     ti_sysbios_config.o (.text.ti_sysbios_family_arm_m3_Hwi_construct2)
                  00013e54    00000044     ti_sysbios_config.o (.text.ti_sysbios_family_arm_m3_Hwi_disableInterrupt)
                  00013e98    00000044     ti_sysbios_config.o (.text.ti_sysbios_family_arm_m3_Hwi_enableInterrupt)
                  00013edc    00000044     ti_sysbios_config.o (.text.ti_sysbios_knl_Swi_restore)
                  00013f20    00000040     cllc.o (.text.Cllc_sendDisassociationRequest)
                  00013f60    00000040     csf.o (.text.Csf_IndicateOrphanReJoin)
                  00013fa0    00000040     csf.o (.text.Csf_deviceConfigUpdate)
                  00013fe0    00000040     csf.o (.text.Csf_deviceDisassocUpdate)
                  00014020    00000040     csf.o (.text.Csf_deviceSensorDeviceTypeResponseUpdate)
                  00014060    00000040     csf.o (.text.Csf_removeDeviceListItem)
                  000140a0    00000040     maclib_secure_cc13x2_tirtos7.a : mac_timer.o (.text.MAC_PwrNextTimeout)
                  000140e0    00000040     maclib_osal_tirtos7_cc13x2_26x2.a : osal_port.o (.text.OsalPort_deleteTimer)
                  00014120    00000040                                       : osal_port.o (.text.OsalPort_msgEnqueueMax)
                  00014160    00000040     drivers_cc13x2.a : PWM.c.obj (.text.PWM_open)
                  000141a0    00000040                      : PowerCC26X2_calibrateRCOSC.c.obj (.text.PowerCC26X2_RCOSC_clockFunc)
                  000141e0    00000040                      : PowerCC26X2_calibrateRCOSC_helpers.c.obj (.text.PowerCC26X2_setAclkRefSrc)
                  00014220    00000040     libc.a : atoi.c.obj (.text.atoi)
                  00014260    00000040     drivers_cc13x2.a : LED.c.obj (.text.clockTimeoutHandler)
                  000142a0    00000040     api_mac.o (.text.copyMacPanDescToApiMacPanDesc)
                  000142e0    00000040     drivers_cc13x2.a : NVSCC26XX.c.obj (.text.disableFlashCache)
                  00014320    00000040     maclib_secure_cc13x2_tirtos7.a : mac_radio.o (.text.macRadioStopScan)
                  00014360    00000040                                    : mac_timer.o (.text.macTimerRecalcUnaligned)
                  000143a0    00000040                                    : mac_tx.o (.text.macTxDecrypt)
                  000143e0    00000040                                    : mac_tx.o (.text.macTxFrameIsr)
                  00014420    00000040     ti_sysbios_config.o (.text.ti_sysbios_knl_Clock_getTicksUntilInterrupt)
                  00014460    00000040     ti_sysbios_config.o (.text.ti_sysbios_knl_Task_exit)
                  000144a0    00000040     ti_sysbios_config.o (.text.ti_sysbios_runtime_Startup_exec)
                  000144e0    0000003e     drivers_cc13x2.a : LED.c.obj (.text.LED_setBrightnessLevel)
                  0001451e    0000003e                      : LED.c.obj (.text.LED_setOff)
                  0001455c    0000003c     cui.o (.text.CUI_updateCursor)
                  00014598    0000003c     drivers_cc13x2.a : GPIO.c.obj (.text.GPIO_resetConfig)
                  000145d4    0000003c     ti_sysbios_config.o (.text.HwiP_construct)
                  00014610    0000003c     maclib_secure_cc13x2_tirtos7.a : mac_autopend.o (.text.MAC_SrcMatchCheckResult)
                  0001464c    0000003c     driverlib.lib : sys_ctrl.o (.text.NOROM_SysCtrlIdle)
                  00014688    0000003c     drivers_cc13x2.a : PowerCC26X2_calibrateRCOSC_helpers.c.obj (.text.PowerCC26X2_setTdcClkSrc24M)
                  000146c4    0000003c     collector.o (.text.cllcDeviceJoiningCB)
                  00014700    0000003c     rf_multiMode_cc13x2.a : rf_patch_cpe_prop.c.cc13x2.ticlang.o (.text.configurePropPatch)
                  0001473c    0000003c     maclib_secure_cc13x2_tirtos7.a : mac_radio.o (.text.macRadioPowerUp)
                  00014778    0000003c                                    : mac_radio_tx.o (.text.macRadioTxGoSlottedCsma)
                  000147b4    0000003c                                    : mac.o (.text.macSetUserConfig)
                  000147f0    0000003c                                    : mac_symbol_timer.o (.text.macSymbolTimerSetCount)
                  0001482c    0000003c                                    : mac_symbol_timer.o (.text.macSymbolTimerSetTrigger)
                  00014868    0000003c                                    : mac_tx.o (.text.macTxTimestampCallback)
                  000148a4    0000003c     csf.o (.text.sendToggleAndUpdateUser)
                  000148e0    0000003c     ti_sysbios_config.o (.text.ti_sysbios_family_arm_cc26xx_Timer_periodicStub)
                  0001491c    0000003c     ti_sysbios_config.o (.text.ti_sysbios_family_arm_cc26xx_Timer_setThreshold)
                  00014958    0000003c     ti_sysbios_config.o (.text.ti_sysbios_heaps_HeapCallback_construct)
                  00014994    0000003c     ti_sysbios_config.o (.text.ti_sysbios_knl_ClockSupport_init)
                  000149d0    0000003c     ti_sysbios_config.o (.text.ti_sysbios_knl_Task_blockI)
                  00014a0c    0000003c     ti_sysbios_config.o (.text.ti_sysbios_knl_Task_create)
                  00014a48    0000003c     ti_sysbios_config.o (.text.ti_sysbios_knl_Task_restore)
                  00014a84    0000003c     ti_sysbios_config.o (.text.ti_sysbios_runtime_Memory_alloc)
                  00014ac0    0000003c     maclib_secure_cc13x2_tirtos7.a : mac_tx.o (.text.txGo)
                  00014afc    0000003c     libc.a : autoinit.c.obj (.text:__TI_auto_init_nobinit_nopinit)
                  00014b38    0000003a     api_mac.o (.text.ApiMac_convertCapabilityInfo)
                  00014b72    0000003a     maclib_secure_cc13x2_tirtos7.a : mac_hl_patch.o (.text.macCheckPhyRate)
                  00014bac    00000038     api_mac.o (.text.ApiMac_buildMsgCapInfo)
                  00014be4    00000038     cllc.o (.text.Cllc_setJoinPermit)
                  00014c1c    00000038     csf.o (.text.Csf_getNumDeviceListEntries)
                  00014c54    00000038     maclib_secure_cc13x2_tirtos7.a : fh_ie_patch.o (.text.FHAPI_getTxParams)
                  00014c8c    00000038     drivers_cc13x2.a : LED.c.obj (.text.LED_setOn)
                  00014cc4    00000038     maclib_secure_cc13x2_tirtos7.a : mac_pwr.o (.text.MAC_PwrOffReq)
                  00014cfc    00000038                                    : mac_autopend.o (.text.MAC_SrcMatchAckAllPending)
                  00014d34    00000038                                    : mac_autopend.o (.text.MAC_SrcMatchDeleteEntry)
                  00014d6c    00000038     ti_sysbios_config.o (.text.MemAlloc_alloc)
                  00014da4    00000038     nvocmp.o (.text.NVOCMP_disableCache)
                  00014ddc    00000038     nvocmp.o (.text.NVOCMP_write)
                  00014e14    00000038     maclib_osal_tirtos7_cc13x2_26x2.a : osal_port.o (.text.OsalPort_waitEvent)
                  00014e4c    00000038     drivers_cc13x2.a : PowerCC26X2_helpers.c.obj (.text.PowerCC26X2_oscDisableQualifiers)
                  00014e84    00000038                      : Random.c.obj (.text.Random_getNumber)
                  00014ebc    00000038                      : RingBuf.c.obj (.text.RingBuf_putAdvance)
                  00014ef4    00000038                      : UART2.c.obj (.text.UART2_rxEnable)
                  00014f2c    00000038                      : UDMACC26XX.c.obj (.text.UDMACC26XX_close)
                  00014f64    00000038     collector.o (.text.commStatusIndCB)
                  00014f9c    00000038     collector.o (.text.findDevice)
                  00014fd4    00000038     collector.o (.text.getMsduHandle)
                  0001500c    00000038     maclib_secure_cc13x2_tirtos7.a : mac_radio.o (.text.macRadioNeedAdjustPower)
                  00015044    00000038                                    : mac_radio.o (.text.macRadioSetIEEEAddr)
                  0001507c    00000038                                    : mac_radio_tx.o (.text.macRadioTxPrepGreenPower)
                  000150b4    00000038                                    : mac_sleep.o (.text.macSleepWakeUp)
                  000150ec    00000038                                    : mac_symbol_timer.o (.text.macSymbolTimerCount)
                  00015124    00000038                                    : mac_timer.o (.text.macTimerInit)
                  0001515c    00000038                                    : mac_tx.o (.text.macTxAckNotReceivedCallback)
                  00015194    00000038                                    : mac_tx.o (.text.macTxFrameRetransmit)
                  000151cc    00000038     ti_sysbios_config.o (.text.pthread_mutex_init)
                  00015204    00000038     ti_sysbios_config.o (.text.ti_sysbios_knl_Task_processVitalTaskFlag)
                  0001523c    00000038     ti_sysbios_config.o (.text.ti_sysbios_runtime_Error_print)
                  00015274    00000036     drivers_cc13x2.a : CryptoUtils.c.obj (.text.CryptoUtils_buffersMatch)
                  000152aa    00000002     maclib_secure_cc13x2_tirtos7.a : mac_radio_tx.o (.text.macRadioTxCancelTxAck)
                  000152ac    00000034     ti_sysbios_config.o (.text.ClockP_create)
                  000152e0    00000034     csf.o (.text.Csf_setBroadcastClock)
                  00015314    00000034     csf.o (.text.Csf_setConfigClock)
                  00015348    00000034     csf.o (.text.Csf_setJoinPermitClock)
                  0001537c    00000034     csf.o (.text.Csf_setTrackingClock)
                  000153b0    00000034     nvocmp.o (.text.NVOCMP_changePageState)
                  000153e4    00000034     nvocmp.o (.text.NVOCMP_findPage)
                  00015418    00000034     maclib_osal_tirtos7_cc13x2_26x2.a : osal_port_timers.o (.text.OsalPortTimers_cleanUpTimers)
                  0001544c    00000034                                       : osal_port.o (.text.OsalPort_registerTask)
                  00015480    00000034     drivers_cc13x2.a : PowerCC26X2.c.obj (.text.Power_releaseConstraint)
                  000154b4    00000034     rf_multiMode_cc13x2.a : RFCC26X2_multiMode.c.cc13x2.ticlang.o (.text.RF_powerConstraintRelease)
                  000154e8    00000034                           : RFCC26X2_multiMode.c.cc13x2.ticlang.o (.text.RF_runDirectImmediateCmd)
                  0001551c    00000034     ti_sysbios_config.o (.text.SwiP_construct)
                  00015550    00000034     drivers_cc13x2.a : UART2CC26X2.c.obj (.text.UART2Support_sendData)
                  00015584    00000034                      : UART2.c.obj (.text.UART2_rxDisable)
                  000155b8    00000034     ti_sysbios_config.o (.text._pthread_cleanupFxn)
                  000155ec    00000034     maclib_secure_cc13x2_tirtos7.a : mac_duty_cycle.o (.text.macDutyCycleUpdateTransmission)
                  00015620    00000034                                    : mac_low_level.o (.text.macLowLevelDiags)
                  00015654    00000034                                    : mac_radio.o (.text.macRadioPowerUpWait)
                  00015688    00000034                                    : mac_radio_tx.o (.text.macRadioTxPrepCsmaUnslottedIeee)
                  000156bc    00000034                                    : mac.o (.text.macRatCb_B)
                  000156f0    00000034                                    : mac_rx_onoff.o (.text.macRxHardDisable)
                  00015724    00000034                                    : mac_autopend.o (.text.macSrcMatchSetEnableBit)
                  00015758    00000034                                    : mac_symbol_timer.o (.text.macSymbolTimerBCWakeUp)
                  0001578c    00000034                                    : mac_timer.o (.text.macTimerAligned)
                  000157c0    00000034                                    : mac_timer.o (.text.macTimerStart)
                  000157f4    00000034     ti_sysbios_config.o (.text.pthread_mutex_unlock)
                  00015828    00000034     ti_sysbios_config.o (.text.ti_sysbios_family_arm_m3_Hwi_getStackInfo)
                  0001585c    00000034     ti_sysbios_config.o (.text.ti_sysbios_family_arm_m3_Hwi_init)
                  00015890    00000034     ti_sysbios_config.o (.text.ti_sysbios_knl_Clock_Instance_init)
                  000158c4    00000034     ti_sysbios_config.o (.text.ti_sysbios_knl_Task_unblockI)
                  000158f8    00000034     ti_sysbios_config.o (.text.ti_sysbios_runtime_Error_raiseX)
                  0001592c    00000034     ti_sysbios_config.o (.text.ti_sysbios_runtime_System_atexit)
                  00015960    00000034     sysbios.a : boot_cortex_m.obj (.text:_c_int00)
                  00015994    00000032     maclib_secure_cc13x2_tirtos7.a : mac_autopend.o (.text.MAC_SrcMatchSetPend)
                  000159c6    00000002                                    : mac_rx.o (.text.macRxRadioPowerUpInit)
                  000159c8    00000030     ti_sysbios_config.o (.text.BIOS_init)
                  000159f8    00000030     ti_drivers_config.o (.text.Board_wakeUpExtFlash)
                  00015a28    00000030     cllc.o (.text.Cllc_getFormingPanId)
                  00015a58    00000030     ti_sysbios_config.o (.text.ClockP_construct)
                  00015a88    00000030     csf.o (.text.Csf_identifyLED)
                  00015ab8    00000030     drivers_cc13x2.a : GPIOCC26XX.c.obj (.text.GPIO_setInterruptConfig)
                  00015ae8    00000030     maclib_secure_cc13x2_tirtos7.a : mac_autopend.o (.text.MAC_SrcMatchSetDefaultPend)
                  00015b18    00000030     drivers_cc13x2.a : NVSCC26XX.c.obj (.text.NVSCC26XX_erase)
                  00015b48    00000030     maclib_osal_tirtos7_cc13x2_26x2.a : osal_port.o (.text.OsalPort_msgExtract)
                  00015b78    00000030     drivers_cc13x2.a : PowerCC26X2.c.obj (.text.Power_setConstraint)
                  00015ba8    00000030     rf_multiMode_cc13x2.a : RFCC26X2_multiMode.c.cc13x2.ticlang.o (.text.RF_checkCmdFsError)
                  00015bd8    00000030     ti_sysbios_config.o (.text.SemaphoreP_construct)
                  00015c08    00000030     cui.o (.text.UartWriteCallback)
                  00015c38    00000030     collector.o (.text.findDeviceStatusBit)
                  00015c68    00000030     csf.o (.text.getNumActiveDevices)
                  00015c98    00000030     maclib_secure_cc13x2_tirtos7.a : mac_hl_patch.o (.text.macDeviceDescriptorLookup)
                  00015cc8    00000030                                    : mac_tx.o (.text.macHandleTxAck)
                  00015cf8    00000030                                    : mac_radio.o (.text.macRadioLimitTxPower)
                  00015d28    00000030                                    : mac_autopend.o (.text.macSrcMatchSetPendEnBit)
                  00015d58    00000030                                    : mac_symbol_timer.o (.text.macSymbolTimerICallTimerCback)
                  00015d88    00000030                                    : mac_tx.o (.text.macTxInit)
                  00015db8    00000030     drivers_cc13x2.a : PowerCC26X2.c.obj (.text.notify)
                  00015de8    00000030     ti_sysbios_config.o (.text.ti_sysbios_knl_Semaphore_pendTimeout)
                  00015e18    00000030     ti_sysbios_config.o (.text.ti_sysbios_knl_TaskSupport_start)
                  00015e48    00000030     ti_sysbios_config.o (.text.ti_sysbios_runtime_System_processAtExit)
                  00015e78    0000002e     driverlib.lib : chipinfo.o (.text.NOROM_ThisLibraryIsFor_CC13x2_CC26x2_HwRev20AndLater_HaltIfViolated)
                  00015ea6    0000002e     rf_multiMode_cc13x2.a : RFCC26X2_multiMode.c.cc13x2.ticlang.o (.text.RF_calculateDeltaTimeUs)
                  00015ed4    0000002e     drivers_cc13x2.a : RingBuf.c.obj (.text.RingBuf_getConsume)
                  00015f02    0000002e                      : RingBuf.c.obj (.text.RingBuf_putPointer)
                  00015f30    0000002c     cllc.o (.text.Cllc_findDevice)
                  00015f5c    0000002c     csf.o (.text.Csf_getDeviceShort)
                  00015f88    0000002c     csf.o (.text.Csf_getNetworkInformation)
                  00015fb4    0000002c     nvocmp.o (.text.NVOCMP_findDstPage)
                  00015fe0    0000002c     nvocmp.o (.text.NVOCMP_setCompactHdr)
                  0001600c    0000002c     drivers_cc13x2.a : NVS.c.obj (.text.NVS_init)
                  00016038    0000002c     ti_sysbios_config.o (.text.PowerCC26XX_schedulerDisable)
                  00016064    0000002c     rf_multiMode_cc13x2.a : RFCC26X2_multiMode.c.cc13x2.ticlang.o (.text.RF_executeDirectImmediateCmd)
                  00016090    0000002c     drivers_cc13x2.a : TRNGCC26XX.c.obj (.text.TRNGCC26XX_stopTrng)
                  000160bc    0000002c                      : UART2CC26X2.c.obj (.text.UART2CC26X2_getRxData)
                  000160e8    0000002c                      : UART2CC26X2.c.obj (.text.UART2Support_enableInts)
                  00016114    0000002c     ti_sysbios_config.o (.text._pthread_delete)
                  00016140    0000002c     maclib_secure_cc13x2_tirtos7.a : mac_duty_cycle.o (.text.macDutyCycleCheck)
                  0001616c    0000002c                                    : mac.o (.text.macRatCb_A)
                  00016198    0000002c                                    : mac.o (.text.macRatDisableChannelB)
                  000161c4    0000002c                                    : mac_rx_onoff.o (.text.macRxOff)
                  000161f0    0000002c                                    : mac_rx_onoff.o (.text.macRxSoftDisable)
                  0001621c    0000002c                                    : mac_rx_onoff.o (.text.macRxSoftEnable)
                  00016248    0000002c                                    : mac_timer.o (.text.macTimerCheckUnAlignedQ)
                  00016274    0000002c                                    : mac_tx.o (.text.macTxAbortIsr)
                  000162a0    0000002c     rf_multiMode_cc13x2.a : rf_patch_cpe_prop.c.cc13x2.ticlang.o (.text.rf_patch_cpe_prop)
                  000162cc    0000002c     ti_sysbios_config.o (.text.ti_sysbios_family_arm_m3_Hwi_construct)
                  000162f8    0000002c     ti_sysbios_config.o (.text.ti_sysbios_knl_Clock_getTicks)
                  00016324    0000002c     ti_sysbios_config.o (.text.ti_sysbios_knl_Clock_getTimeout)
                  00016350    0000002c     ti_sysbios_config.o (.text.ti_sysbios_knl_Swi_setPri)
                  0001637c    0000002c     ti_sysbios_config.o (.text.ti_sysbios_knl_Task_restoreHwi)
                  000163a8    0000002a     driverlib.lib : osc.o (.text.NOROM_OSCHF_TurnOnXosc)
                  000163d2    00000002     ti_sysbios_config.o (.text.ti_sysbios_runtime_System_exitSpin)
                  000163d4    0000002a     maclib_osal_tirtos7_cc13x2_26x2.a : osal_port.o (.text.OsalPort_buildUint32)
                  000163fe    0000002a     drivers_cc13x2.a : TRNGCC26XX.c.obj (.text.TRNG_generateKey)
                  00016428    0000002a                      : UART2CC26X2.c.obj (.text.UART2Support_powerRelConstraint)
                  00016452    0000002a     maclib_secure_cc13x2_tirtos7.a : mac_radio.o (.text.radioComputeED)
                  0001647c    0000002a     ti_sysbios_config.o (.text.ti_sysbios_family_arm_cc26xx_Timer_setNextTick)
                  000164a6    0000002a     ti_sysbios_config.o (.text.ti_sysbios_knl_Task_allBlockedFunction)
                  000164d0    00000028     ti_sysbios_config.o (.text.BIOS_registerRTSLock)
                  000164f8    00000028     cui.o (.text.CUI_publicAPIChecks)
                  00016520    00000028     cllc.o (.text.Cllc_setDefaultKey)
                  00016548    00000028     csf.o (.text.Csf_displayError)
                  00016570    00000028     csf.o (.text.Csf_initializeBroadcastClock)
                  00016598    00000028     csf.o (.text.Csf_initializeConfigClock)
                  000165c0    00000028     csf.o (.text.Csf_initializeTrackingClock)
                  000165e8    00000028     drivers_cc13x2.a : List.c.obj (.text.List_remove)
                  00016610    00000028     maclib_secure_cc13x2_tirtos7.a : mac_hl_patch.o (.text.MAC_AbortScan)
                  00016638    00000028     maclib_osal_tirtos7_cc13x2_26x2.a : osal_port.o (.text.OsalPort_heapGetStats)
                  00016660    00000028                                       : osal_port.o (.text.OsalPort_msgEnqueue)
                  00016688    00000028     drivers_cc13x2.a : PowerCC26X2.c.obj (.text.PowerCC26XX_isStableXOSC_HF)
                  000166b0    00000028     rf_multiMode_cc13x2.a : RFCC26X2_multiMode.c.cc13x2.ticlang.o (.text.RF_cmdStoreEvents)
                  000166d8    00000028     collector.o (.text.cllcStartedCB)
                  00016700    00000028     maclib_secure_cc13x2_tirtos7.a : mac_radio.o (.text.macRadioSetPanID)
                  00016728    00000028                                    : mac_radio.o (.text.macRadioSetShortAddr)
                  00016750    00000028                                    : mac_radio.o (.text.macRadioSwInit)
                  00016778    00000028                                    : mac_rx_onoff.o (.text.macRxEnable)
                  000167a0    00000028                                    : mac_rx_onoff.o (.text.macRxOnOffInit)
                  000167c8    00000028                                    : mac_timer.o (.text.macTimer)
                  000167f0    00000028     ti_sysbios_config.o (.text.sem_init)
                  00016818    00000028     cllc.o (.text.startCnfCb)
                  00016840    00000028     cui.o (.text.strncpy)
                  00016868    00000028     sysbios.a : Hwi_asm_gnu.obj (.text.ti_sysbios_family_arm_m3_Hwi_excHandlerAsm)
                  00016890    00000028     ti_sysbios_config.o (.text.ti_sysbios_knl_Swi_init)
                  000168b8    00000028     sysbios.a : TaskSupport_asm_gnu.obj (.text.ti_sysbios_knl_TaskSupport_swap)
                  000168e0    00000028     ti_sysbios_config.o (.text.ti_sysbios_knl_Task_construct)
                  00016908    00000028     ti_sysbios_config.o (.text.ti_sysbios_knl_Task_init)
                  00016930    00000028     csf.o (.text.uintToString)
                  00016958    00000026     drivers_cc13x2.a : List.c.obj (.text.List_insert)
                  0001697e    00000026                      : List.c.obj (.text.List_putHead)
                  000169a4    00000026     maclib_osal_tirtos7_cc13x2_26x2.a : osal_port.o (.text.OsalPort_msgDequeue)
                  000169ca    00000026     drivers_cc13x2.a : UART2CC26X2.c.obj (.text.UART2Support_powerSetConstraint)
                  000169f0    00000026     maclib_secure_cc13x2_tirtos7.a : saddr.o (.text.sAddrCmp)
                  00016a16    00000026     cui.o (.text.strncat)
                  00016a3c    00000026     ti_sysbios_config.o (.text.ti_sysbios_knl_Clock_create)
                  00016a62    00000002     --HOLE-- [fill = 0]
                  00016a64    00000024     ti_sysbios_config.o (.text.BIOS_removeRTSLock)
                  00016a88    00000024     cui.o (.text.CUI_getClientIndex)
                  00016aac    00000024     csf.o (.text.Csf_initializeIdentifyClock)
                  00016ad0    00000024     drivers_cc13x2.a : List.c.obj (.text.List_put)
                  00016af4    00000024     maclib_osal_tirtos7_cc13x2_26x2.a : osal_port.o (.text.OsalPort_msgAllocate)
                  00016b18    00000024     drivers_cc13x2.a : PowerCC26X2_helpers.c.obj (.text.PowerCC26X2_getOscHfSourceReady)
                  00016b3c    00000024                      : PowerCC26X2_helpers.c.obj (.text.PowerCC26X2_setSubSecIncToXoscLf)
                  00016b60    00000024                      : PowerCC26X2_calibrateRCOSC_helpers.c.obj (.text.PowerCC26X2_writeCtrim)
                  00016b84    00000024                      : PowerCC26X2_calibrateRCOSC_helpers.c.obj (.text.PowerCC26X2_writeCtrimFract)
                  00016ba8    00000024                      : PowerCC26X2_calibrateRCOSC_helpers.c.obj (.text.PowerCC26X2_writeCtrimFractEn)
                  00016bcc    00000024                      : PowerCC26X2_calibrateRCOSC_helpers.c.obj (.text.PowerCC26X2_writeRtrim)
                  00016bf0    00000024                      : PowerCC26X2.c.obj (.text.Power_registerNotify)
                  00016c14    00000024     rf_multiMode_cc13x2.a : RFCC26X2_multiMode.c.cc13x2.ticlang.o (.text.RF_clkPowerUp)
                  00016c38    00000024                           : RFCC26X2_multiMode.c.cc13x2.ticlang.o (.text.RF_hwiCpe0ChangePhy)
                  00016c5c    00000024                           : RFCC26X2_multiMode.c.cc13x2.ticlang.o (.text.RF_isStateTransitionAllowed)
                  00016c80    00000024                           : RFCC26X2_multiMode.c.cc13x2.ticlang.o (.text.RF_searchAndReplacePAOverride)
                  00016ca4    00000024     ti_sysbios_config.o (.text.SemaphoreP_createBinary)
                  00016cc8    00000024     cllc.o (.text.disassocCnfCb)
                  00016cec    00000024     cllc.o (.text.disassocIndCb)
                  00016d10    00000024     maclib_secure_cc13x2_tirtos7.a : mac.o (.text.macSetCurrChan)
                  00016d34    00000024                                    : mac_symbol_timer.o (.text.macSymbolTimerPowerDown)
                  00016d58    00000024                                    : mac_symbol_timer.o (.text.macSymbolTimerRestore)
                  00016d7c    00000024                                    : mac_symbol_timer.o (.text.macSymbolTimerSetRollover)
                  00016da0    00000024     cui.o (.text.memcmp)
                  00016dc4    00000024     collector.o (.text.processConfigRetry)
                  00016de8    00000024     csf.o (.text.processKeyChangeCallback)
                  00016e0c    00000024     drivers_cc13x2.a : NVSCC26XX.c.obj (.text.restoreFlashCache)
                  00016e30    00000024     csf.o (.text.saveNumDeviceListEntries)
                  00016e54    00000024     csf.o (.text.strncat)
                  00016e78    00000024     ti_sysbios_config.o (.text.ti_sysbios_knl_Semaphore_Instance_init)
                  00016e9c    00000024     ti_sysbios_config.o (.text.ti_sysbios_knl_Semaphore_create)
                  00016ec0    00000024     ti_sysbios_config.o (.text.ti_sysbios_knl_Semaphore_destruct)
                  00016ee4    00000024     ti_sysbios_config.o (.text.ti_sysbios_knl_Task_enter)
                  00016f08    00000022     drivers_cc13x2.a : LED.c.obj (.text.LED_stopBlinking)
                  00016f2a    00000022                      : List.c.obj (.text.List_get)
                  00016f4c    00000022     rf_multiMode_cc13x2.a : RFCC26X2_multiMode.c.cc13x2.ticlang.o (.text.RF_queueEnd)
                  00016f6e    00000022     drivers_cc13x2.a : RingBuf.c.obj (.text.RingBuf_getPointer)
                  00016f90    00000022                      : UART2.c.obj (.text.UART2_read)
                  00016fb2    00000022     maclib_secure_cc13x2_tirtos7.a : icall_osal_rom_init.o (.text.memcmp)
                  00016fd4    00000022     drivers_cc13x2.a : Button.c.obj (.text.msToTicks)
                  00016ff6    00000022     maclib_secure_cc13x2_tirtos7.a : saddr.o (.text.sAddrExtCmp)
                  00017018    00000022     ti_sysbios_config.o (.text.ti_sysbios_gates_GateMutexPri_insertPri)
                  0001703a    00000002     --HOLE-- [fill = 0]
                  0001703c    00000020     collector.o (.text.Collector_updateStats)
                  0001705c    00000020     csf.o (.text.Csf_closeNwk)
                  0001707c    00000020     csf.o (.text.Csf_openNwk)
                  0001709c    00000020     rf_multiMode_cc13x2.a : rfc.c.cc13x2.ticlang.o (.text.NOROM_RFCDoorbellSendTo)
                  000170bc    00000020                           : rfc.c.cc13x2.ticlang.o (.text.NOROM_RFCOverrideSearch)
                  000170dc    00000020     drivers_cc13x2.a : NVSCC26XX.c.obj (.text.NVSCC26XX_getAttrs)
                  000170fc    00000020                      : PowerCC26X2_helpers.c.obj (.text.PowerCC26X2_disableTCXOQual)
                  0001711c    00000020                      : PowerCC26X2_helpers.c.obj (.text.PowerCC26X2_enableTCXOQual)
                  0001713c    00000020     ti_sysbios_config.o (.text.PowerCC26XX_schedulerRestore)
                  0001715c    00000020     drivers_cc13x2.a : PowerCC26X2.c.obj (.text.Power_unregisterNotify)
                  0001717c    00000020     rf_multiMode_cc13x2.a : RFCC26X2_multiMode.c.cc13x2.ticlang.o (.text.RF_cmdAlloc)
                  0001719c    00000020                           : RFCC26X2_multiMode.c.cc13x2.ticlang.o (.text.RF_getRssi)
                  000171bc    00000020                           : RFCC26X2_multiMode.c.cc13x2.ticlang.o (.text.RF_invokeGlobalCallback)
                  000171dc    00000020                           : RFCC26X2_multiMode.c.cc13x2.ticlang.o (.text.RF_ratIsRunning)
                  000171fc    00000020                           : RFCC26X2_multiMode.c.cc13x2.ticlang.o (.text.RF_setTxPower)
                  0001721c    00000020     ti_sysbios_config.o (.text.SemaphoreP_constructBinary)
                  0001723c    00000020     cllc.o (.text.dataIndCb)
                  0001725c    00000020     maclib_secure_cc13x2_tirtos7.a : mac_radio.o (.text.macGetRadioState)
                  0001727c    00000020                                    : mac_mcu.o (.text.macMcuTimerCapture)
                  0001729c    00000020                                    : mac_hl_patch.o (.text.macPibIndex)
                  000172bc    00000020                                    : mac_radio.o (.text.macRadioEnergyDetectStop)
                  000172dc    00000020                                    : mac_radio.o (.text.macRadioSelectConfig)
                  000172fc    00000020                                    : mac_rx.o (.text.macRxSFDTimerExpiry)
                  0001731c    00000020                                    : mac_symbol_timer.o (.text.macSymbolTimerSetTriggerRollover)
                  0001733c    00000020     csf.o (.text.openCloseNwkAndUpdateUser)
                  0001735c    00000020     collector.o (.text.pollIndCB)
                  0001737c    00000020     csf.o (.text.processBroadcastTimeoutCallback)
                  0001739c    00000020     csf.o (.text.processConfigTimeoutCallback)
                  000173bc    00000020     csf.o (.text.processTrackingTimeoutCallback)
                  000173dc    00000020     mac_user_config.o (.text.rfSelect)
                  000173fc    00000020     csf.o (.text.sensorDeviceTypeRequestAction)
                  0001741c    00000020     csf.o (.text.sensorDisassocAction)
                  0001743c    00000020     csf.o (.text.sensorLedToggleAction)
                  0001745c    00000020     ti_sysbios_config.o (.text.ti_sysbios_family_arm_m3_Hwi_initStack)
                  0001747c    00000020     ti_sysbios_config.o (.text.ti_sysbios_gates_GateMutexPri_Instance_init)
                  0001749c    00000020     ti_sysbios_config.o (.text.ti_sysbios_knl_Clock_delete)
                  000174bc    00000020     ti_sysbios_config.o (.text.ti_sysbios_knl_Semaphore_delete)
                  000174dc    00000020     ti_sysbios_config.o (.text.ti_sysbios_knl_Task_delete)
                  000174fc    00000020     ti_sysbios_config.o (.text.ti_sysbios_knl_Task_destruct)
                  0001751c    0000001e     driverlib.lib : flash.o (.text.NOROM_FlashProgram)
                  0001753a    0000001e                   : flash.o (.text.NOROM_FlashSectorErase)
                  00017558    0000001e     maclib_osal_tirtos7_cc13x2_26x2.a : osal_port.o (.text.OsalPort_msgDeallocate)
                  00017576    0000001e     drivers_cc13x2.a : UART2.c.obj (.text.UART2_writeTimeout)
                  00017594    0000001e     sysbios.a : Hwi_asm_switch_gnu.obj (.text.ti_sysbios_family_arm_m3_Hwi_switchAndRunFunc)
                  000175b2    00000002     --HOLE-- [fill = 0]
                  000175b4    0000001c     ti_sysbios_config.o (.text.BIOS_rtsLock)
                  000175d0    0000001c     cui.o (.text.CUI_menuActionBack)
                  000175ec    0000001c     csf.o (.text.Csf_deviceNotActiveUpdate)
                  00017608    0000001c     drivers_cc13x2.a : GPIO.c.obj (.text.GPIO_setCallback)
                  00017624    0000001c                      : GPIOCC26XX.c.obj (.text.GPIO_setMux)
                  00017640    0000001c     ti_sysbios_config.o (.text.HwiP_setPriority)
                  0001765c    0000001c     nvocmp.o (.text.NVOCMP_expectCompApi)
                  00017678    0000001c     nvocmp.o (.text.NVOCMP_writeByte)
                  00017694    0000001c     maclib_osal_tirtos7_cc13x2_26x2.a : osal_port.o (.text.OsalPort_memcmp)
                  000176b0    0000001c     drivers_cc13x2.a : PowerCC26X2.c.obj (.text.Power_getTransitionLatency)
                  000176cc    0000001c     rf_multiMode_cc13x2.a : RFCC26X2_multiMode.c.cc13x2.ticlang.o (.text.RF_clkInactivityCallback)
                  000176e8    0000001c                           : RFCC26X2_multiMode.c.cc13x2.ticlang.o (.text.RF_getPAOverrideOffsetAndValue)
                  00017704    0000001c                           : RFCC26X2_multiMode.c.cc13x2.ticlang.o (.text.RF_powerConstraintSet)
                  00017720    0000001c                           : RFCC26X2_multiMode.c.cc13x2.ticlang.o (.text.RF_swiFsm)
                  0001773c    0000001c     drivers_cc13x2.a : RingBuf.c.obj (.text.RingBuf_flush)
                  00017758    0000001c     crc.o (.text.crc_update)
                  00017774    0000001c     maclib_secure_cc13x2_tirtos7.a : mac_mcu.o (.text.macMcuOverflowCapture)
                  00017790    0000001c                                    : mac.o (.text.macNopBackoffTimerExpiry)
                  000177ac    0000001c                                    : mac_radio.o (.text.macRadioInit)
                  000177c8    0000001c                                    : mac_radio_tx.o (.text.macRadioTxBOBoundary)
                  000177e4    0000001c                                    : mac_radio_tx.o (.text.macRadioTxPrepCsmaSlotted)
                  00017800    0000001c                                    : mac_radio_tx.o (.text.macRadioTxPrepCsmaUnslotted)
                  0001781c    0000001c                                    : mac_rx.o (.text.macRxAckTxDoneCallback)
                  00017838    0000001c                                    : mac.o (.text.macSendReceiveCmd)
                  00017854    0000001c                                    : mac_symbol_timer.o (.text.macSymbolTimerCompareIsr)
                  00017870    0000001c                                    : mac_symbol_timer.o (.text.macSymbolTimerRealign)
                  0001788c    0000001c     csf.o (.text.processMenuUpdate)
                  000178a8    0000001c     maclib_secure_cc13x2_tirtos7.a : mac_rx.o (.text.rxDone)
                  000178c4    0000001c     ti_sysbios_config.o (.text.ti_sysbios_knl_Clock_Instance_finalize)
                  000178e0    0000001c     ti_sysbios_config.o (.text.ti_sysbios_knl_Clock_construct)
                  000178fc    0000001c     ti_sysbios_config.o (.text.ti_sysbios_knl_Idle_run)
                  00017918    0000001c     ti_sysbios_config.o (.text.ti_sysbios_knl_Queue_put)
                  00017934    0000001c     ti_sysbios_config.o (.text.ti_sysbios_knl_Semaphore_construct)
                  00017950    0000001c     ti_sysbios_config.o (.text.ti_sysbios_knl_Swi_construct)
                  0001796c    0000001c     ti_sysbios_config.o (.text.ti_sysbios_knl_Swi_destruct)
                  00017988    0000001a     cui.o (.text.CUI_updateRemLen)
                  000179a2    0000001a     drivers_cc13x2.a : LED.c.obj (.text.LED_toggle)
                  000179bc    0000001a     macTask.o (.text.OUTLINED_FUNCTION_2)
                  000179d6    0000001a     maclib_osal_tirtos7_cc13x2_26x2.a : osal_port.o (.text.OsalPort_msgPush)
                  000179f0    0000001a     drivers_cc13x2.a : UART2CC26X2.c.obj (.text.UART2Support_disableRx)
                  00017a0a    0000001a     api_mac.o (.text.copyApiMacAddrToMacAddr)
                  00017a24    0000001a     maclib_secure_cc13x2_tirtos7.a : mac_hl_patch.o (.text.macCheckPhyMode)
                  00017a3e    00000002     --HOLE-- [fill = 0]
                  00017a40    00000018     ti_sysbios_config.o (.text.BIOS_exitFunc)
                  00017a58    00000018     ti_sysbios_config.o (.text.BIOS_rtsUnlock)
                  00017a70    00000018     cllc.o (.text.Cllc_setChanMask)
                  00017a88    00000018     drivers_cc13x2.a : GPIOCC26XX.c.obj (.text.GPIO_disableInt)
                  00017aa0    00000018     maclib_secure_cc13x2_tirtos7.a : mac_pwr.o (.text.MAC_PwrOnReq)
                  00017ab8    00000018     drivers_cc13x2.a : NVSCC26XX.c.obj (.text.NVSCC26XX_lock)
                  00017ad0    00000018                      : PowerCC26X2.c.obj (.text.PowerCC26XX_calibrate)
                  00017ae8    00000018                      : PowerCC26X2.c.obj (.text.Power_idleFunc)
                  00017b00    00000018     rf_multiMode_cc13x2.a : RFCC26X2_multiMode.c.cc13x2.ticlang.o (.text.RF_ScheduleCmdParams_init)
                  00017b18    00000018                           : RFCC26X2_multiMode.c.cc13x2.ticlang.o (.text.RF_cancelCmd)
                  00017b30    00000018                           : RFCC26X2_multiMode.c.cc13x2.ticlang.o (.text.RF_restartClockTimeout)
                  00017b48    00000018     cui.o (.text.UartReadCallback)
                  00017b60    00000018     maclib_osal_tirtos7_cc13x2_26x2.a : mac_util.o (.text.Util_clearEvent)
                  00017b78    00000018                                       : mac_util.o (.text.Util_setEvent)
                  00017b90    00000018     csf.o (.text.closeNwkAction)
                  00017ba8    00000018     csf.o (.text.formNwkAction)
                  00017bc0    00000018     maclib_secure_cc13x2_tirtos7.a : mac_timer.o (.text.macTimerSyncRollover)
                  00017bd8    00000018                                    : mac_hl_patch.o (.text.macWrapper8ByteUnused)
                  00017bf0    00000018     csf.o (.text.openNwkAction)
                  00017c08    00000018     collector.o (.text.orphanIndCb)
                  00017c20    00000018     ti_sysbios_config.o (.text.pthread_attr_init)
                  00017c38    00000018     maclib_secure_cc13x2_tirtos7.a : mac_rx.o (.text.rxDiscardFrame)
                  00017c50    00000018     ti_sysbios_config.o (.text.ti_sysbios_knl_Clock_scheduleNextTick)
                  00017c68    00000018     ti_sysbios_config.o (.text.ti_sysbios_knl_Swi_construct2)
                  00017c80    00000018     ti_sysbios_config.o (.text.ti_sysbios_knl_Swi_or)
                  00017c98    00000018     sysbios.a : TaskSupport_asm_gnu.obj (.text.ti_sysbios_knl_TaskSupport_glue)
                  00017cb0    00000018     ti_sysbios_config.o (.text.ti_sysbios_knl_Task_unblock)
                  00017cc8    00000018     ti_sysbios_config.o (.text.ti_sysbios_runtime_System_printf)
                  00017ce0    00000018     ti_sysbios_config.o (.text.ti_sysbios_runtime_System_vprintf)
                  00017cf8    00000018     maclib_secure_cc13x2_tirtos7.a : mac_tx.o (.text.txCsmaGo)
                  00017d10    00000018     drivers_cc13x2.a : UART2CC26X2.c.obj (.text.uartDmaDisable)
                  00017d28    00000018                      : UART2CC26X2.c.obj (.text.uartDmaEnable)
                  00017d40    00000016     ti_drivers_config.o (.text.Board_init)
                  00017d56    00000016     cllc.o (.text.Cllc_securityFill)
                  00017d6c    00000016     ti_sysbios_config.o (.text.HwiP_interruptsEnabled)
                  00017d82    00000016     ti_sysbios_config.o (.text.HwiP_setFunc)
                  00017d98    00000016     drivers_cc13x2.a : List.c.obj (.text.List_clearList)
                  00017dae    00000016     nvocmp.o (.text.OUTLINED_FUNCTION_0)
                  00017dc4    00000016     rf_multiMode_cc13x2.a : RFCC26X2_multiMode.c.cc13x2.ticlang.o (.text.RF_ratCompare)
                  00017dda    00000016     ti_sysbios_config.o (.text.SystemP_snprintf)
                  00017df0    00000016     maclib_secure_cc13x2_tirtos7.a : rom_init_154.o (.text.TIMAC_ROM_Init)
                  00017e06    00000016     drivers_cc13x2.a : TRNGCC26XX.c.obj (.text.TRNGCC26XX_startJob)
                  00017e1c    00000016     maclib_secure_cc13x2_tirtos7.a : mac_radio.o (.text.macRadioSetTxPower)
                  00017e32    00000016                                    : mac_timer.o (.text.macTimerRemoveTimer)
                  00017e48    00000016     ti_sysbios_config.o (.text.ti_sysbios_knl_Clock_start)
                  00017e5e    00000016     ti_sysbios_config.o (.text.ti_sysbios_knl_Task_block)
                  00017e74    00000014     drivers_cc13x2.a : AESCCMCC26XX.c.obj (.text.AESCCM_init)
                  00017e88    00000014                      : GPIOCC26XX.c.obj (.text.GPIO_read)
                  00017e9c    00000014     maclib_secure_cc13x2_tirtos7.a : mac_autopend.o (.text.MAC_SrcMatchCheckAllPending)
                  00017eb0    00000014     cui.o (.text.OUTLINED_FUNCTION_0)
                  00017ec4    00000014     maclib_secure_cc13x2_tirtos7.a : mac_hl_patch.o (.text.OUTLINED_FUNCTION_1)
                  00017ed8    00000014     rf_multiMode_cc13x2.a : RFCC26X2_multiMode.c.cc13x2.ticlang.o (.text.RF_dbellSyncOnAck)
                  00017eec    00000014                           : RFCC26X2_multiMode.c.cc13x2.ticlang.o (.text.RF_flushCmd)
                  00017f00    00000014     ti_sysbios_config.o (.text.SwiP_disable)
                  00017f14    00000014     drivers_cc13x2.a : TRNGCC26XX.c.obj (.text.TRNG_close)
                  00017f28    00000014                      : UART2CC26X2.c.obj (.text.UART2CC26X2_postNotifyFxn)
                  00017f3c    00000014     libc.a : args_main.c.obj (.text._args_main)
                  00017f50    00000014     maclib_secure_cc13x2_tirtos7.a : mac_symbol_timer.o (.text.macCsmaTimerExpiry)
                  00017f64    00000014                                    : mac.o (.text.macRxBackoffTimerExpiry)
                  00017f78    00000014                                    : mac_rx_onoff.o (.text.macRxOnRequest)
                  00017f8c    00000014                                    : mac_symbol_timer.o (.text.macSymbolBCTimerPowerUp)
                  00017fa0    00000014                                    : mac_symbol_timer.o (.text.macSymbolSetupPwrMgmt)
                  00017fb4    00000014                                    : mac.o (.text.macTxBackoffTimerExpiry)
                  00017fc8    00000014     ti_sysbios_config.o (.text.pthread_attr_setschedparam)
                  00017fdc    00000014     ti_sysbios_config.o (.text.pthread_mutexattr_init)
                  00017ff0    00000014     cllc.o (.text.switchState)
                  00018004    00000014     ti_sysbios_config.o (.text.ti_sysbios_family_arm_m3_Hwi_switchFromBootStack)
                  00018018    00000014     drivers_cc13x2.a : Button.c.obj (.text.timediff)
                  0001802c    00000014     cllc.o (.text.updateState)
                  00018040    00000014     libclang_rt.builtins.a : aeabi_memset.S.obj (.text)
                  00018054    00000014                            : aeabi_uldivmod.S.obj (.text)
                  00018068    00000012     cllc.o (.text.Cllc_startNetwork)
                  0001807a    00000012     nvocmp.o (.text.NVOCMP_readByte)
                  0001808c    00000012     drivers_cc13x2.a : NVS.c.obj (.text.NVS_write)
                  0001809e    00000012     api_mac.o (.text.OUTLINED_FUNCTION_0)
                  000180b0    00000012     maclib_secure_cc13x2_tirtos7.a : mac_radio_tx.o (.text.OUTLINED_FUNCTION_0)
                  000180c2    00000012     rf_multiMode_cc13x2.a : RFCC26X2_multiMode.c.cc13x2.ticlang.o (.text.RF_getCmdOp)
                  000180d4    00000012     drivers_cc13x2.a : StructRingBuf.c.obj (.text.StructRingBuf_construct)
                  000180e6    00000012     ti_sysbios_config.o (.text._pthread_runStub)
                  000180f8    00000012     maclib_secure_cc13x2_tirtos7.a : mac_mcu.o (.text.macMcuLongDiv)
                  0001810a    00000012                                    : saddr.o (.text.sAddrCpy)
                  0001811c    00000012                                    : mac_tx.o (.text.txLbtPrep)
                  0001812e    00000012     libc.a : memcpy_t2.S.obj (.text:TI_memcpy_small)
                  00018140    00000010     drivers_cc13x2.a : AESCCM.c.obj (.text.AESCCM_Params_init)
                  00018150    00000010                      : AESCCM.c.obj (.text.AESCCM_open)
                  00018160    00000010     api_mac.o (.text.ApiMac_mlmeSetReqBool)
                  00018170    00000010     api_mac.o (.text.ApiMac_mlmeSetReqUint16)
                  00018180    00000010     api_mac.o (.text.ApiMac_mlmeSetReqUint8)
                  00018190    00000010     api_mac.o (.text.ApiMac_mlmeSetSecurityReqUint16)
                  000181a0    00000010     drivers_cc13x2.a : Button.c.obj (.text.Button_Params_init)
                  000181b0    00000010     cllc.o (.text.Cllc_getChanMask)
                  000181c0    00000010     cllc.o (.text.Cllc_getDefaultKey)
                  000181d0    00000010     cllc.o (.text.Cllc_securityCheck)
                  000181e0    00000010     cllc.o (.text.Cllc_setFormingPanId)
                  000181f0    00000010     ti_sysbios_config.o (.text.ClockP_getCpuFreq)
                  00018200    00000010     maclib_secure_cc13x2_tirtos7.a : fh_rom_init.o (.text.FH_ROM_Init)
                  00018210    00000010     drivers_cc13x2.a : GPIOCC26XX.c.obj (.text.GPIO_write)
                  00018220    00000010     maclib_secure_cc13x2_tirtos7.a : hmac_rom_init.o (.text.HMAC_ROM_Init)
                  00018230    00000010     ti_sysbios_config.o (.text.HwiP_Params_init)
                  00018240    00000010     ti_sysbios_config.o (.text.HwiP_post)
                  00018250    00000010     maclib_secure_cc13x2_tirtos7.a : icall_osal_rom_init.o (.text.Icall_Osal_ROM_Init)
                  00018260    00000010                                    : lmac_rom_init.o (.text.LMAC_ROM_Init)
                  00018270    00000010     macTask.o (.text.MAC_CbackCheckPending)
                  00018280    00000010     macTask.o (.text.MAC_CbackQueryRetransmit)
                  00018290    00000010     main.o (.text.Main_assertHandler)
                  000182a0    00000010     rf_multiMode_cc13x2.a : rfc.c.cc13x2.ticlang.o (.text.NOROM_RFCCpeIntGetAndClear)
                  000182b0    00000010                           : rfc.c.cc13x2.ticlang.o (.text.NOROM_RFCHwIntGetAndClear)
                  000182c0    00000010     nvocmp.o (.text.NVOCMP_read)
                  000182d0    00000010     drivers_cc13x2.a : Button.c.obj (.text.OUTLINED_FUNCTION_0)
                  000182e0    00000010     maclib_secure_cc13x2_tirtos7.a : mac.o (.text.OUTLINED_FUNCTION_0)
                  000182f0    00000010     cui.o (.text.OUTLINED_FUNCTION_1)
                  00018300    00000010     rf_multiMode_cc13x2.a : RFCC26X2_multiMode.c.cc13x2.ticlang.o (.text.OUTLINED_FUNCTION_1)
                  00018310    00000010     maclib_osal_tirtos7_cc13x2_26x2.a : osal_port.o (.text.OsalPort_memcpy)
                  00018320    00000010     drivers_cc13x2.a : PWM.c.obj (.text.PWM_Params_init)
                  00018330    00000010                      : PowerCC26X2_helpers.c.obj (.text.PowerCC26X2_oscCtlClearXtal)
                  00018340    00000010                      : PowerCC26X2_helpers.c.obj (.text.PowerCC26X2_prcmEnableCacheRetention)
                  00018350    00000010                      : PowerCC26X2_calibrateRCOSC_helpers.c.obj (.text.PowerCC26X2_readCtrim)
                  00018360    00000010                      : PowerCC26X2_calibrateRCOSC_helpers.c.obj (.text.PowerCC26X2_readCtrimFract)
                  00018370    00000010                      : PowerCC26X2_calibrateRCOSC_helpers.c.obj (.text.PowerCC26X2_readRtrim)
                  00018380    00000010                      : PowerCC26X2_helpers.c.obj (.text.PowerCC26X2_switchToTCXO)
                  00018390    00000010                      : PowerCC26X2.c.obj (.text.Power_getDependencyCount)
                  000183a0    00000010                      : RingBuf.c.obj (.text.RingBuf_construct)
                  000183b0    00000010     ti_sysbios_config.o (.text.SwiP_Params_init)
                  000183c0    00000010     drivers_cc13x2.a : UART2CC26X2.c.obj (.text.UART2Support_txDone)
                  000183d0    00000010     cllc.o (.text.commStatusIndCb)
                  000183e0    00000010     ti_sysbios_config.o (.text.ti_sysbios_family_arm_cc26xx_Timer_dynamicStub)
                  000183f0    00000010     ti_sysbios_config.o (.text.ti_sysbios_family_arm_m3_Hwi_excHandler)
                  00018400    00000010     ti_sysbios_config.o (.text.ti_sysbios_runtime_System_vsnprintf)
                  00018410    00000010     libc.a : copy_zero_init.c.obj (.text:decompress:ZI)
                  00018420    0000000e     drivers_cc13x2.a : LED.c.obj (.text.LED_Params_init)
                  0001842e    0000000e     nvocmp.o (.text.NVOCMP_getCompactHdr)
                  0001843c    0000000e     drivers_cc13x2.a : NVS.c.obj (.text.NVS_read)
                  0001844a    0000000e     csf.o (.text.OUTLINED_FUNCTION_0)
                  00018458    0000000e     drivers_cc13x2.a : PowerCC26X2.c.obj (.text.OUTLINED_FUNCTION_0)
                  00018466    0000000e     maclib_secure_cc13x2_tirtos7.a : mac_rx.o (.text.OUTLINED_FUNCTION_0)
                  00018474    0000000e     rf_multiMode_cc13x2.a : RFCC26X2_multiMode.c.cc13x2.ticlang.o (.text.OUTLINED_FUNCTION_0)
                  00018482    0000000e     ti_sysbios_config.o (.text.OUTLINED_FUNCTION_0)
                  00018490    0000000e     cui.o (.text.OUTLINED_FUNCTION_2)
                  0001849e    0000000e     nvocmp.o (.text.OUTLINED_FUNCTION_2)
                  000184ac    0000000e     maclib_secure_cc13x2_tirtos7.a : mac.o (.text.OUTLINED_FUNCTION_3)
                  000184ba    0000000e                                    : mac_radio_tx.o (.text.OUTLINED_FUNCTION_3)
                  000184c8    0000000e     rf_multiMode_cc13x2.a : RFCC26X2_multiMode.c.cc13x2.ticlang.o (.text.OUTLINED_FUNCTION_3)
                  000184d6    0000000e     maclib_secure_cc13x2_tirtos7.a : mac_hl_patch.o (.text.OUTLINED_FUNCTION_4)
                  000184e4    0000000e                                    : mac_radio_tx.o (.text.OUTLINED_FUNCTION_4)
                  000184f2    0000000e                                    : mac_hl_patch.o (.text.OUTLINED_FUNCTION_6)
                  00018500    0000000e     rf_multiMode_cc13x2.a : RFCC26X2_multiMode.c.cc13x2.ticlang.o (.text.RF_RatConfigCompare_init)
                  0001850e    0000000e     drivers_cc13x2.a : StructRingBuf.c.obj (.text.StructRingBuf_isFull)
                  0001851c    0000000e     ti_sysbios_config.o (.text.SwiP_setPriority)
                  0001852a    0000000e     drivers_cc13x2.a : UART2.c.obj (.text.UART2_write)
                  00018538    0000000e     maclib_osal_tirtos7_cc13x2_26x2.a : mac_util.o (.text.Util_buildUint32)
                  00018546    0000000e     maclib_secure_cc13x2_tirtos7.a : mac_low_level.o (.text.macLowLevelBufferInit)
                  00018554    0000000e                                    : mac_low_level.o (.text.macLowLevelReset)
                  00018562    0000000e                                    : mac_low_level.o (.text.macLowLevelResume)
                  00018570    0000000e     ti_sysbios_config.o (.text.sem_wait)
                  0001857e    0000000e     csf.o (.text.strcpy)
                  0001858c    0000000e     cui.o (.text.strlen)
                  0001859a    0000000e     maclib_secure_cc13x2_tirtos7.a : icall_osal_rom_init.o (.text.strlen)
                  000185a8    0000000e     ti_sysbios_config.o (.text.strlen)
                  000185b6    0000000e     drivers_cc13x2.a : PowerCC26X2.c.obj (.text.switchToTCXO)
                  000185c4    0000000e     libc.a : memset_t2.S.obj (.text:TI_memset_small)
                  000185d2    0000000e            : copy_decompress_none.c.obj (.text:decompress:none)
                  000185e0    0000000c     drivers_cc13x2.a : AESCCMCC26XX.c.obj (.text.AESCCM_close)
                  000185ec    0000000c     api_mac.o (.text.ApiMac_registerCallbacks)
                  000185f8    0000000c     ti_sysbios_config.o (.text.BIOS_linkedWithIncorrectBootLibrary)
                  00018604    0000000c     ti_sysbios_config.o (.text.BIOS_start)
                  00018610    0000000c     ti_sysbios_config.o (.text.ClockP_delete)
                  0001861c    0000000c     drivers_cc13x2.a : CryptoKeyPlaintext.c.obj (.text.CryptoKeyPlaintext_initBlankKey)
                  00018628    0000000c                      : CryptoKeyPlaintext.c.obj (.text.CryptoKeyPlaintext_initKey)
                  00018634    0000000c     csf.o (.text.Csf_isConfigTimerActive)
                  00018640    0000000c     csf.o (.text.Csf_isTrackingTimerActive)
                  0001864c    0000000c     ti_sysbios_config.o (.text.HwiP_disable)
                  00018658    0000000c     maclib_secure_cc13x2_tirtos7.a : mac_pwr.o (.text.MAC_PwrMode)
                  00018664    0000000c     driverlib.lib : cpu.o (.text.NOROM_CPUcpsid)
                  00018670    0000000c                   : cpu.o (.text.NOROM_CPUcpsie)
                  0001867c    0000000c     nvocmp.o (.text.NVOCMP_doRAMCRC)
                  00018688    0000000c     drivers_cc13x2.a : NVSCC26XX.c.obj (.text.NVSCC26XX_unlock)
                  00018694    0000000c     maclib_secure_cc13x2_tirtos7.a : mac.o (.text.OUTLINED_FUNCTION_1)
                  000186a0    0000000c                                    : mac_radio_tx.o (.text.OUTLINED_FUNCTION_1)
                  000186ac    0000000c                                    : mac_hl_patch.o (.text.OUTLINED_FUNCTION_2)
                  000186b8    0000000c     macTask.o (.text.OUTLINED_FUNCTION_3)
                  000186c4    0000000c     maclib_osal_tirtos7_cc13x2_26x2.a : osal_port_timers.o (.text.OsalPortTimers_registerCleanupEvent)
                  000186d0    0000000c                                       : osal_port.o (.text.OsalPort_stopTimer)
                  000186dc    0000000c     drivers_cc13x2.a : PowerCC26X2_helpers.c.obj (.text.PowerCC26X2_oscClockSourceGet)
                  000186e8    0000000c                      : PowerCC26X2_helpers.c.obj (.text.PowerCC26X2_setPeriphDeepSleepEnable)
                  000186f4    0000000c                      : PowerCC26X2_helpers.c.obj (.text.PowerCC26X2_sysCtrlGetResetSource)
                  00018700    0000000c                      : PowerCC26X2_helpers.c.obj (.text.PowerCC26X2_sysCtrlVoltageConditionalControl)
                  0001870c    0000000c                      : PowerCC26X2.c.obj (.text.Power_getConstraintMask)
                  00018718    0000000c     rf_multiMode_cc13x2.a : RFCC26X2_multiMode.c.cc13x2.ticlang.o (.text.RF_Params_init)
                  00018724    0000000c     ti_sysbios_config.o (.text.SemaphoreP_delete)
                  00018730    0000000c     ti_sysbios_config.o (.text.SwiP_getTrigger)
                  0001873c    0000000c     drivers_cc13x2.a : UART2CC26X2.c.obj (.text.UART2Support_disableTx)
                  00018748    0000000c                      : UART2CC26X2.c.obj (.text.UART2Support_enableRx)
                  00018754    0000000c                      : UART2CC26X2.c.obj (.text.UART2Support_enableTx)
                  00018760    0000000c                      : UART2.c.obj (.text.UART2_Params_init)
                  0001876c    0000000c     libc.a : _lock.c.obj (.text._register_lock)
                  00018778    0000000c            : _lock.c.obj (.text._register_unlock)
                  00018784    0000000c     collector.o (.text.cllcStateChangedCB)
                  00018790    0000000c     maclib_secure_cc13x2_tirtos7.a : mac_pwr.o (.text.macPwrReset)
                  0001879c    0000000c                                    : mac.o (.text.macRegisterSfdDetect)
                  000187a8    0000000c                                    : mac_rx.o (.text.macRxSequenceNum)
                  000187b4    0000000c                                    : mac_symbol_timer.o (.text.macSymbolTimerGetTrigger)
                  000187c0    0000000c     maclib_osal_tirtos7_cc13x2_26x2.a : osal_port.o (.text.osalHeapInitFxn)
                  000187cc    0000000c     csf.o (.text.processIdentifyTimeoutCallback)
                  000187d8    0000000c     ti_sysbios_config.o (.text.pthread_attr_setdetachstate)
                  000187e4    0000000c     ti_sysbios_config.o (.text.pthread_self)
                  000187f0    0000000c     ti_sysbios_config.o (.text.ti_sysbios_knl_ClockSupport_setNextTick)
                  000187fc    0000000c     ti_sysbios_config.o (.text.ti_sysbios_knl_Clock_tick)
                  00018808    0000000a     drivers_cc13x2.a : AESCCM.c.obj (.text.AESCCM_Operation_init)
                  00018812    0000000a     cui.o (.text.CUI_clientParamsInit)
                  0001881c    0000000a     ti_sysbios_config.o (.text.ClockP_Params_init)
                  00018826    0000000a     maclib_secure_cc13x2_tirtos7.a : fh_ie_patch.o (.text.FHIEPATCH_getPieId)
                  00018830    0000000a     collector.o (.text.OUTLINED_FUNCTION_0)
                  0001883a    0000000a     macTask.o (.text.OUTLINED_FUNCTION_0)
                  00018844    0000000a     maclib_secure_cc13x2_tirtos7.a : fh_ie_patch.o (.text.OUTLINED_FUNCTION_0)
                  0001884e    0000000a                                    : mac_hl_patch.o (.text.OUTLINED_FUNCTION_0)
                  00018858    0000000a                                    : mac_radio.o (.text.OUTLINED_FUNCTION_0)
                  00018862    0000000a     api_mac.o (.text.OUTLINED_FUNCTION_1)
                  0001886c    0000000a     macTask.o (.text.OUTLINED_FUNCTION_1)
                  00018876    0000000a     maclib_secure_cc13x2_tirtos7.a : mac_rx.o (.text.OUTLINED_FUNCTION_1)
                  00018880    0000000a                                    : mac_tx.o (.text.OUTLINED_FUNCTION_1)
                  0001888a    0000000a     nvocmp.o (.text.OUTLINED_FUNCTION_1)
                  00018894    0000000a     maclib_secure_cc13x2_tirtos7.a : mac_radio_tx.o (.text.OUTLINED_FUNCTION_2)
                  0001889e    0000000a                                    : mac_hl_patch.o (.text.OUTLINED_FUNCTION_3)
                  000188a8    0000000a     cui.o (.text.OUTLINED_FUNCTION_4)
                  000188b2    0000000a     maclib_secure_cc13x2_tirtos7.a : mac.o (.text.OUTLINED_FUNCTION_4)
                  000188bc    0000000a                                    : mac.o (.text.OUTLINED_FUNCTION_5)
                  000188c6    0000000a                                    : mac_hl_patch.o (.text.OUTLINED_FUNCTION_5)
                  000188d0    0000000a                                    : mac_radio_tx.o (.text.OUTLINED_FUNCTION_5)
                  000188da    0000000a     rf_multiMode_cc13x2.a : RFCC26X2_multiMode.c.cc13x2.ticlang.o (.text.OUTLINED_FUNCTION_5)
                  000188e4    0000000a     maclib_secure_cc13x2_tirtos7.a : mac_radio_tx.o (.text.OUTLINED_FUNCTION_6)
                  000188ee    0000000a     maclib_osal_tirtos7_cc13x2_26x2.a : osal_port.o (.text.OsalPort_enterCS)
                  000188f8    0000000a     drivers_cc13x2.a : PowerCC26X2_helpers.c.obj (.text.PowerCC26X2_sysCtrlStandby)
                  00018902    0000000a     ti_sysbios_config.o (.text.SemaphoreP_pend)
                  0001890c    0000000a     drivers_cc13x2.a : UDMACC26XX.c.obj (.text.UDMACC26XX_hwiIntFxn)
                  00018916    0000000a     maclib_osal_tirtos7_cc13x2_26x2.a : mac_util.o (.text.Util_copyExtAddr)
                  00018920    0000000a     maclib_secure_cc13x2_tirtos7.a : mac_mcu.o (.text.macMcuRandomByte)
                  0001892a    0000000a     maclib_osal_tirtos7_cc13x2_26x2.a : osal_port.o (.text.osalHeapGetStatsFxn)
                  00018934    0000000a     ti_sysbios_config.o (.text.sem_post)
                  0001893e    00000008     csf.o (.text.Csf_free)
                  00018946    00000008     driverlib.lib : cpu.o (.text.NOROM_CPUdelay)
                  0001894e    00000008     drivers_cc13x2.a : NVSCC26XX.c.obj (.text.NVSCC26XX_close)
                  00018956    00000008     maclib_secure_cc13x2_tirtos7.a : mac_sleep.o (.text.OUTLINED_FUNCTION_0)
                  0001895e    00000008                                    : mac.o (.text.OUTLINED_FUNCTION_2)
                  00018966    00000008     rf_multiMode_cc13x2.a : RFCC26X2_multiMode.c.cc13x2.ticlang.o (.text.OUTLINED_FUNCTION_2)
                  0001896e    00000008     drivers_cc13x2.a : PowerCC26X2_helpers.c.obj (.text.PowerCC26X2_oschfTrySwitchToXosc)
                  00018976    00000008     ti_sysbios_config.o (.text.SemaphoreP_Params_init)
                  0001897e    00000008     maclib_osal_tirtos7_cc13x2_26x2.a : util_timer.o (.text.UtilTimer_setTimeout)
                  00018986    00000008                                       : mac_util.o (.text.Util_breakUint32)
                  0001898e    00000002     --HOLE-- [fill = 0]
                  00018990    00000008     libc.a : aeabi_portable.c.obj (.text.__aeabi_errno_addr)
                  00018998    00000008     ti_sysbios_config.o (.text.pthread_mutex_lock)
                  000189a0    00000008     ti_sysbios_config.o (.text.ti_sysbios_runtime_System_exit)
                  000189a8    00000006     drivers_cc13x2.a : AESCCMCC26XX.c.obj (.text.AESCCM_oneStepDecrypt)
                  000189ae    00000006                      : AESCCMCC26XX.c.obj (.text.AESCCM_oneStepEncrypt)
                  000189b4    00000006                      : Button.c.obj (.text.Button_setCallback)
                  000189ba    00000006     cui.o (.text.CUI_paramsInit)
                  000189c0    00000006     ti_sysbios_config.o (.text.ClockP_stop)
                  000189c6    00000006     ti_sysbios_config.o (.text.HwiP_restore)
                  000189cc    00000006     main.o (.text.Main_excHandler)
                  000189d2    00000006     drivers_cc13x2.a : NVSCC26XX.c.obj (.text.NVSCC26XX_control)
                  000189d8    00000006                      : NVS.c.obj (.text.NVS_erase)
                  000189de    00000006                      : NVS.c.obj (.text.NVS_getAttrs)
                  000189e4    00000006                      : UART2.c.obj (.text.OUTLINED_FUNCTION_0)
                  000189ea    00000006     maclib_secure_cc13x2_tirtos7.a : mac_tx.o (.text.OUTLINED_FUNCTION_0)
                  000189f0    00000006     cui.o (.text.OUTLINED_FUNCTION_3)
                  000189f6    00000006     rf_multiMode_cc13x2.a : RFCC26X2_multiMode.c.cc13x2.ticlang.o (.text.OUTLINED_FUNCTION_4)
                  000189fc    00000006     maclib_osal_tirtos7_cc13x2_26x2.a : osal_port.o (.text.OsalPort_clockFunc)
                  00018a02    00000006                                       : osal_port.o (.text.OsalPort_leaveCS)
                  00018a08    00000006     drivers_cc13x2.a : PWM.c.obj (.text.PWM_close)
                  00018a0e    00000006                      : PWM.c.obj (.text.PWM_setDuty)
                  00018a14    00000006                      : PWM.c.obj (.text.PWM_start)
                  00018a1a    00000006     rf_multiMode_cc13x2.a : RFCC26X2_multiMode.c.cc13x2.ticlang.o (.text.RF_RatConfigOutput_init)
                  00018a20    00000006                           : RFCC26X2_multiMode.c.cc13x2.ticlang.o (.text.RF_clkReqAccess)
                  00018a26    00000006                           : RFCC26X2_multiMode.c.cc13x2.ticlang.o (.text.RF_runDirectCmd)
                  00018a2c    00000006                           : RFCC26X2_multiMode.c.cc13x2.ticlang.o (.text.RF_runImmediateCmd)
                  00018a32    00000006     maclib_osal_tirtos7_cc13x2_26x2.a : mac_util.o (.text.Util_buildUint16)
                  00018a38    00000006     main.o (.text.assertHandler)
                  00018a3e    00000006     maclib_secure_cc13x2_tirtos7.a : mac_radio_tx.o (.text.macRadioTxGoGreenPower)
                  00018a44    00000006                                    : mac_radio_tx.o (.text.macRadioTxGoSlotted)
                  00018a4a    00000006                                    : mac_hl_patch.o (.text.macTxBackoffHandler)
                  00018a50    00000006     maclib_osal_tirtos7_cc13x2_26x2.a : osal_port.o (.text.osalHeapAllocFxn)
                  00018a56    00000006                                       : osal_port.o (.text.osalHeapFreeFxn)
                  00018a5c    00000006     ti_sysbios_config.o (.text.pthread_attr_setstacksize)
                  00018a62    00000006     maclib_secure_cc13x2_tirtos7.a : saddr.o (.text.sAddrExtCpy)
                  00018a68    00000006     ti_sysbios_config.o (.text.ti_sysbios_family_arm_m3_Hwi_destruct)
                  00018a6e    00000006     ti_sysbios_config.o (.text.ti_sysbios_family_arm_m3_Hwi_doSwiRestore)
                  00018a74    00000006     ti_sysbios_config.o (.text.ti_sysbios_family_arm_m3_Hwi_doTaskRestore)
                  00018a7a    00000006     ti_sysbios_config.o (.text.ti_sysbios_heaps_HeapCallback_alloc)
                  00018a80    00000006     ti_sysbios_config.o (.text.ti_sysbios_heaps_HeapCallback_free)
                  00018a86    00000006     ti_sysbios_config.o (.text.ti_sysbios_heaps_HeapCallback_getStats)
                  00018a8c    00000006     ti_sysbios_config.o (.text.ti_sysbios_heaps_HeapCallback_isBlocking)
                  00018a92    00000006     ti_sysbios_config.o (.text.ti_sysbios_knl_Idle_loop)
                  00018a98    00000006     ti_sysbios_config.o (.text.ti_sysbios_knl_Swi_startup)
                  00018a9e    00000004     api_mac.o (.text.ApiMac_mlmeAssociateRsp)
                  00018aa2    00000004     api_mac.o (.text.ApiMac_mlmeDisassociateReq)
                  00018aa6    00000004     api_mac.o (.text.ApiMac_mlmeGetReqArray)
                  00018aaa    00000004     api_mac.o (.text.ApiMac_mlmeGetReqUint16)
                  00018aae    00000004     api_mac.o (.text.ApiMac_mlmeGetReqUint32)
                  00018ab2    00000004     api_mac.o (.text.ApiMac_mlmeGetReqUint8)
                  00018ab6    00000004     api_mac.o (.text.ApiMac_mlmeOrphanRsp)
                  00018aba    00000004     api_mac.o (.text.ApiMac_mlmeSetSecurityReqArray)
                  00018abe    00000004     api_mac.o (.text.ApiMac_mlmeSetSecurityReqStruct)
                  00018ac2    00000004     api_mac.o (.text.ApiMac_mlmeStartReq)
                  00018ac6    00000004     api_mac.o (.text.ApiMac_secAddDevice)
                  00018aca    00000004     api_mac.o (.text.ApiMac_secAddKeyInitFrameCounter)
                  00018ace    00000004     api_mac.o (.text.ApiMac_secDeleteDevice)
                  00018ad2    00000004     ti_sysbios_config.o (.text.ClockP_destruct)
                  00018ad6    00000004     ti_sysbios_config.o (.text.ClockP_getSystemTickPeriod)
                  00018ada    00000004     ti_sysbios_config.o (.text.ClockP_getSystemTicks)
                  00018ade    00000004     ti_sysbios_config.o (.text.ClockP_getTimeout)
                  00018ae2    00000004     ti_sysbios_config.o (.text.ClockP_isActive)
                  00018ae6    00000004     ti_sysbios_config.o (.text.ClockP_setTimeout)
                  00018aea    00000004     ti_sysbios_config.o (.text.ClockP_start)
                  00018aee    00000004     csf.o (.text.Csf_malloc)
                  00018af2    00000004     maclib_secure_cc13x2_tirtos7.a : fh_ie_patch.o (.text.FHIEPATCH_extractHie)
                  00018af6    00000004                                    : fh_ie_patch.o (.text.FHIEPATCH_extractPie)
                  00018afa    00000004                                    : fh_ie_patch.o (.text.FHIEPATCH_genHie)
                  00018afe    00000004                                    : fh_ie_patch.o (.text.FHIEPATCH_genPieContent)
                  00018b02    00000004                                    : fh_ie_patch.o (.text.FHIEPATCH_getHieLen)
                  00018b06    00000004                                    : fh_ie_patch.o (.text.FHIEPATCH_getPieContentLen)
                  00018b0a    00000004                                    : fh_ie_patch.o (.text.FHIEPATCH_parseHie)
                  00018b0e    00000004                                    : fh_ie_patch.o (.text.FHIEPATCH_parsePie)
                  00018b12    00000004     ti_sysbios_config.o (.text.HwiP_destruct)
                  00018b16    00000004     ti_sysbios_config.o (.text.HwiP_enableInterrupt)
                  00018b1a    00000004     rf_multiMode_cc13x2.a : rfc.c.cc13x2.ticlang.o (.text.NOROM_RFCOverrideUpdate)
                  00018b1e    00000004     maclib_osal_tirtos7_cc13x2_26x2.a : osal_port.o (.text.OsalPort_free)
                  00018b22    00000004                                       : osal_port.o (.text.OsalPort_malloc)
                  00018b26    00000004     drivers_cc13x2.a : PowerCC26X2_helpers.c.obj (.text.PowerCC26X2_oschfSwitchToRcosc)
                  00018b2a    00000004                      : PowerCC26X2_helpers.c.obj (.text.PowerCC26X2_sysCtrlIdle)
                  00018b2e    00000004                      : PowerCC26X2_helpers.c.obj (.text.PowerCC26X2_turnOnXosc)
                  00018b32    00000004     rf_multiMode_cc13x2.a : RFCC26X2_multiMode.c.cc13x2.ticlang.o (.text.RF_defaultExecutionPolicy)
                  00018b36    00000004     drivers_cc13x2.a : RingBuf.c.obj (.text.RingBuf_getCount)
                  00018b3a    00000004     ti_sysbios_config.o (.text.SemaphoreP_destruct)
                  00018b3e    00000004     ti_sysbios_config.o (.text.SemaphoreP_post)
                  00018b42    00000004     ti_sysbios_config.o (.text.SwiP_destruct)
                  00018b46    00000004     ti_sysbios_config.o (.text.SwiP_or)
                  00018b4a    00000004     ti_sysbios_config.o (.text.SwiP_restore)
                  00018b4e    00000004     ti_sysbios_config.o (.text.SystemP_vsnprintf)
                  00018b52    00000004     drivers_cc13x2.a : TRNGCC26XX.c.obj (.text.TRNG_generateEntropy)
                  00018b56    00000004     maclib_osal_tirtos7_cc13x2_26x2.a : util_timer.o (.text.UtilTimer_isActive)
                  00018b5a    00000004                                       : util_timer.o (.text.UtilTimer_start)
                  00018b5e    00000004                                       : util_timer.o (.text.UtilTimer_stop)
                  00018b62    00000004                                       : mac_util.o (.text.Util_hiUint16)
                  00018b66    00000004                                       : mac_util.o (.text.Util_loUint16)
                  00018b6a    00000004     ti_sysbios_config.o (.text._system_post_cinit)
                  00018b6e    00000004     ti_sysbios_config.o (.text._system_pre_init)
                  00018b72    00000004     drivers_cc13x2.a : PowerCC26X2.c.obj (.text.configureRFCoreClocks)
                  00018b76    00000004     maclib_secure_cc13x2_tirtos7.a : mac_hl_patch.o (.text.macPibCheckByPatch)
                  00018b7a    00000004                                    : mac_radio.o (.text.macRadioComputeLQI)
                  00018b7e    00000004                                    : mac_radio.o (.text.macRadioRandomByte)
                  00018b82    00000004                                    : mac_hl_patch.o (.text.macRxBackoffHandler)
                  00018b86    00000004                                    : mac_symbol_timer.o (.text.macSymbolTimerPwrNotify)
                  00018b8a    00000004                                    : mac_symbol_timer.o (.text.macSymbolTimerReset)
                  00018b8e    00000004                                    : mac_timer.o (.text.macTimerGetTime)
                  00018b92    00000004                                    : mac_tx.o (.text.macTxAckIsr)
                  00018b96    00000004     ti_sysbios_config.o (.text.malloc)
                  00018b9a    00000004     drivers_cc13x2.a : PowerCC26X2.c.obj (.text.nopResourceHandler)
                  00018b9e    00000004     maclib_osal_tirtos7_cc13x2_26x2.a : osal_port.o (.text.osalHeapIsBlockingFxn)
                  00018ba2    00000002     --HOLE-- [fill = 0]
                  00018ba4    00000004     libclang_rt.builtins.a : aeabi_memcpy.S.obj (.text)
                  00018ba8    00000008     (.tramp.MAC_MlmeStartReq.1)
                  00018bb0    00000008     (.tramp.MAC_MlmeOrphanRsp.1)
                  00018bb8    00000008     (.tramp.MAC_MlmeGetReq.1)
                  00018bc0    00000008     (.tramp.MAC_MlmeDisassociateReq.1)
                  00018bc8    00000008     (.tramp.MAC_MlmeAssociateRsp.1)
                  00018bd0    00000008     (.tramp.MAC_MlmeSetSecurityReq.1)
                  00018bd8    00000008     (.tramp.MAC_MlmeResetReq.1)
                  00018be0    00000008     (.tramp.MAC_EnableFH.1)
                  00018be8    00000008     (.tramp.macMainSetTaskId.1)
                  00018bf0    00000008     (.tramp.MAC_MlmeSetReq.1)
                  00018bf8    00000008     (.tramp.macExecute.1)
                  00018c00    00000008     (.tramp.mac_msg_deallocate.1)
                  00018c08    00000008     (.tramp.macCommStatusInd.1)
                  00018c10    00000008     (.tramp.MAC_InitCoord.1)
                  00018c18    00000008     (.tramp.MAC_Init.1)

.TI.bound:flashBuf0 
*          0    0004e000    00008000     UNINITIALIZED
                  0004e000    00008000     ti_drivers_config.o (.TI.bound:flashBuf0)

.ccfg      0    00057fa8    00000058     
                  00057fa8    00000058     ti_devices_config.o (.ccfg)

.data:RAM_MAC_BASE_ADDR 
*          0    2000010c    00000010     UNINITIALIZED
                  2000010c    00000010     maclib_secure_cc13x2_tirtos7.a : rom_init_154.o (.data:RAM_MAC_BASE_ADDR)

.data      0    200023d0    00000dab     UNINITIALIZED
                  200023d0    00000174     drivers_cc13x2.a : PowerCC26X2.c.obj (.data.PowerCC26X2_module)
                  20002544    000000a0     mac_cfg.o (.data.macMRFSKGenPhyTable)
                  200025e4    0000007c     csf.o (.data..L_MergedGlobals.68)
                  20002660    0000007c     ti_drivers_config.o (.data.gpioPinConfigs)
                  200026dc    0000006e     ti_radio_config.o (.data.txPowerTable_868_pa13)
                  2000274a    00000002     api_mac.o (.data..L_MergedGlobals)
                  2000274c    0000006c     maclib_secure_cc13x2_tirtos7.a : hmac_global.o (.data.fhObject)
                  200027b8    00000068     rf_multiMode_cc13x2.a : RFCC26X2_multiMode.c.cc13x2.ticlang.o (.data..L_MergedGlobals.1)
                  20002820    00000068     cui.o (.data..L_MergedGlobals.22)
                  20002888    00000068     ti_sysbios_config.o (.data..L_MergedGlobals.71)
                  200028f0    00000068     ti_sysbios_config.o (.data..L_MergedGlobals)
                  20002958    00000068     ti_sysbios_config.o (.data.ti_sysbios_knl_Clock_Module_state)
                  200029c0    00000064     rf_multiMode_cc13x2.a : RFCC26X2_multiMode.c.cc13x2.ticlang.o (.data..L_MergedGlobals.3)
                  20002a24    00000060     cllc.o (.data..L_MergedGlobals)
                  20002a84    00000060     collector.o (.data..L_MergedGlobals)
                  20002ae4    0000005c     main.o (.data.Main_user1Cfg)
                  20002b40    0000005a     csf.o (.data..L_MergedGlobals)
                  20002b9a    00000002     maclib_secure_cc13x2_tirtos7.a : mac_autopend.o (.data..L_MergedGlobals)
                  20002b9c    00000058     rf_multiMode_cc13x2.a : RFCC26X2_multiMode.c.cc13x2.ticlang.o (.data..L_MergedGlobals.2)
                  20002bf4    00000058     csf.o (.data.appSubMenu)
                  20002c4c    00000054     maclib_secure_cc13x2_tirtos7.a : fh_global.o (.data.FHIE_channelPlan)
                  20002ca0    00000050     nvocmp.o (.data..L_MergedGlobals.1)
                  20002cf0    00000048     cllc.o (.data.macCallbacksCopy)
                  20002d38    00000040     csf.o (.data.commissionSubMenu)
                  20002d78    00000040     csf.o (.data.configureSubMenu)
                  20002db8    00000040     csf.o (.data.csfMainMenu)
                  20002df8    0000003c     ti_sysbios_config.o (.data.ti_sysbios_knl_Task_Module_state)
                  20002e34    00000038     drivers_cc13x2.a : TRNGCC26XX.c.obj (.data..L_MergedGlobals.1)
                  20002e6c    00000035     cui.o (.data..L_MergedGlobals)
                  20002ea1    00000034     maclib_secure_cc13x2_tirtos7.a : hmac_global.o (.data.macBeaconPayload)
                  20002ed5    00000003                                    : mac_tx.o (.data..L_MergedGlobals.1)
                  20002ed8    00000030     drivers_cc13x2.a : TRNGCC26XX.c.obj (.data..L_MergedGlobals)
                  20002f08    00000028     ti_radio_config.o (.data.pOverrides_2gfsk50kbps154g)
                  20002f30    00000024     maclib_secure_cc13x2_tirtos7.a : hmac_global.o (.data.macActionSet)
                  20002f54    00000004                                    : mac_hl_patch.o (.data..L_MergedGlobals)
                  20002f58    00000020                                    : mac.o (.data..L_MergedGlobals)
                  20002f78    00000020     mac_cfg.o (.data.macBeaconMargin)
                  20002f98    00000018     maclib_secure_cc13x2_tirtos7.a : mac_duty_cycle.o (.data..L_MergedGlobals)
                  20002fb0    00000015                                    : mac_rx.o (.data..L_MergedGlobals)
                  20002fc5    00000001     cui.o (.data.CUI_statusLinePrintf.refreshCharIdx)
                  20002fc6    00000001     main.o (.data.Main_assertReason)
                  20002fc7    00000001     nvocmp.o (.data.NVOCMP_failF)
                  20002fc8    00000014     maclib_osal_tirtos7_cc13x2_26x2.a : osal_port.o (.data..L_MergedGlobals)
                  20002fdc    00000014     ti_sysbios_config.o (.data.defaultPthreadAttrs)
                  20002ff0    00000014     maclib_secure_cc13x2_tirtos7.a : hmac_global.o (.data.macStateTbl)
                  20003004    00000014     main.o (.data.macUser0Cfg)
                  20003018    00000010     macTask.o (.data..L_MergedGlobals)
                  20003028    00000010     mac_settings.o (.data.RF_cmdNop)
                  20003038    00000010     mac_settings.o (.data.RF_cmdNopFg)
                  20003048    00000010     ti_radio_config.o (.data.RF_prop_2gfsk50kbps154g)
                  20003058    00000010     driverlib.lib : osc.o (.data._hposcCoeffs)
                  20003068    00000010     mac_cfg.o (.data.macCfg)
                  20003078    0000000c     maclib_osal_tirtos7_cc13x2_26x2.a : osal_port.o (.data..L_MergedGlobals.1)
                  20003084    0000000c     maclib_secure_cc13x2_tirtos7.a : mac.o (.data..L_MergedGlobals.1)
                  20003090    0000000c     drivers_cc13x2.a : NVSCC26XX.c.obj (.data..L_MergedGlobals)
                  2000309c    0000000c     maclib_secure_cc13x2_tirtos7.a : fh_global.o (.data.FH_FSM)
                  200030a8    00000008     maclib_osal_tirtos7_cc13x2_26x2.a : osal_port_timers.o (.data..L_MergedGlobals.1)
                  200030b0    00000008     maclib_secure_cc13x2_tirtos7.a : mac_radio.o (.data..L_MergedGlobals.1)
                  200030b8    00000008     maclib_osal_tirtos7_cc13x2_26x2.a : osal_port_timers.o (.data..L_MergedGlobals)
                  200030c0    00000008     maclib_secure_cc13x2_tirtos7.a : mac_radio.o (.data..L_MergedGlobals)
                  200030c8    00000008                                    : mac_radio_tx.o (.data..L_MergedGlobals)
                  200030d0    00000008                                    : mac_tx.o (.data..L_MergedGlobals)
                  200030d8    00000008     rf_multiMode_cc13x2.a : RFCC26X2_multiMode.c.cc13x2.ticlang.o (.data..L_MergedGlobals)
                  200030e0    00000008     maclib_secure_cc13x2_tirtos7.a : fh_global.o (.data.FH_txTiming)
                  200030e8    00000008     rf_multiMode_cc13x2.a : RFCC26X2_multiMode.c.cc13x2.ticlang.o (.data.RFCC26XX_schedulerPolicy)
                  200030f0    00000008     ti_sysbios_config.o (.data.ti_sysbios_gates_GateMutexPri_Module_state)
                  200030f8    00000008     ti_sysbios_config.o (.data.ti_sysbios_heaps_HeapCallback_Module_state)
                  20003100    00000008     ti_sysbios_config.o (.data.ti_sysbios_knl_Semaphore_Module_state)
                  20003108    00000004     rf_multiMode_cc13x2.a : RFCC26X2_multiMode.c.cc13x2.ticlang.o (.data.RF_fsmActiveState.lfClockSourceLast)
                  2000310c    00000004     libc.a : aeabi_portable.c.obj (.data.__aeabi_errno)
                  20003110    00000004            : _lock.c.obj (.data._lock)
                  20003114    00000004            : _lock.c.obj (.data._unlock)
                  20003118    00000004     api_mac.o (.data.appEvents)
                  2000311c    00000004     maclib_secure_cc13x2_tirtos7.a : fh_global.o (.data.macAddrSize)
                  20003120    00000004                                    : hmac_global.o (.data.macDataBeaconRequeue)
                  20003124    00000004                                    : hmac_global.o (.data.macDataCheckSched)
                  20003128    00000004                                    : hmac_global.o (.data.macDataCheckTxTime)
                  2000312c    00000004                                    : hmac_global.o (.data.macDataRequeueIndirect)
                  20003130    00000004                                    : hmac_global.o (.data.macDataRxBeaconCritical)
                  20003134    00000004                                    : hmac_global.o (.data.macDataSetSched)
                  20003138    00000004                                    : hmac_global.o (.data.macDataTxBeaconComplete)
                  2000313c    00000004                                    : hmac_global.o (.data.macDataTxIndirect)
                  20003140    00000004                                    : mac_symbol_timer.o (.data.macSymbolWakeupClock)
                  20003144    00000004     macTask.o (.data.macTaskEvents)
                  20003148    00000004     maclib_osal_tirtos7_cc13x2_26x2.a : osal_port.o (.data.macTasksEvents)
                  2000314c    00000004     maclib_secure_cc13x2_tirtos7.a : hmac_global.o (.data.macTimerNewRollover)
                  20003150    00000004                                    : hmac_global.o (.data.macTimerRollover)
                  20003154    00000004                                    : mac.o (.data.minTxOffTime)
                  20003158    00000004     api_mac.o (.data.pMacCallbacks)
                  2000315c    00000004     maclib_secure_cc13x2_tirtos7.a : hmac_global.o (.data.pMacDataTx)
                  20003160    00000004                                    : mac_radio_tx.o (.data.pMacEnhancedAck)
                  20003164    00000004                                    : mac_mcu.o (.data.pRandomSeedCB)
                  20003168    00000001                                    : lmac_global.o (.data.bInSwi)
                  20003169    00000001     rf_multiMode_cc13x2.a : rf_patch_cpe_prop.c.cc13x2.ticlang.o (.data.bPropPatchEntered)
                  2000316a    00000001     maclib_secure_cc13x2_tirtos7.a : hmac_global.o (.data.csmPhy)
                  2000316b    00000001                                    : mac.o (.data.customMinTxOffEnabled)
                  2000316c    00000001                                    : mac_duty_cycle.o (.data.dcEnabled)
                  2000316d    00000001     drivers_cc13x2.a : GPIOCC26X2.c.obj (.data.initCalled)
                  2000316e    00000001                      : AESCCMCC26XX.c.obj (.data.isInitialized)
                  2000316f    00000001                      : CryptoResourceCC26XX.c.obj (.data.isInitialized)
                  20003170    00000001                      : NVS.c.obj (.data.isInitialized)
                  20003171    00000001                      : PWM.c.obj (.data.isInitialized)
                  20003172    00000001     maclib_secure_cc13x2_tirtos7.a : lmac_global.o (.data.macRadioYielded)
                  20003173    00000001                                    : mac_sleep.o (.data.macSleepState)
                  20003174    00000001                                    : lmac_global.o (.data.macSrcMatchIsEnabled)
                  20003175    00000001                                    : mac.o (.data.macTxCmdActive)
                  20003176    00000001                                    : lmac_global.o (.data.macTxSlottedDelay)
                  20003177    00000001                                    : mac_tx.o (.data.macTxSlottedDelayFactor)
                  20003178    00000001                                    : mac_tx.o (.data.npdb)
                  20003179    00000001                                    : mac_tx.o (.data.numTx)
                  2000317a    00000001                                    : mac.o (.data.reqAccessAlloc)

.vtable    0    2000317b    00000000     UNINITIALIZED

.vtable_ram 
*          0    2000317b    00000000     UNINITIALIZED

vtable_ram 
*          0    2000317b    00000000     UNINITIALIZED

.sysmem    0    2000317b    00000000     UNINITIALIZED

.nonretenvar 
*          0    2000317b    00000000     UNINITIALIZED

.stack     0    20013aa0    00000560     UNINITIALIZED
                  20013aa0    00000004     sysbios.a : boot_cortex_m.obj (.stack)
                  20013aa4    0000055c     --HOLE--

__llvm_prf_cnts 
*          0    20000000    00000000     UNINITIALIZED

.TI.bound:dmaUart1RxControlTableEntry 
*          0    20001850    00000010     UNINITIALIZED
                  20001850    00000010     ti_drivers_config.o (.TI.bound:dmaUart1RxControlTableEntry)

.TI.bound:dmaUart1TxControlTableEntry 
*          0    20001860    00000010     UNINITIALIZED
                  20001860    00000010     ti_drivers_config.o (.TI.bound:dmaUart1TxControlTableEntry)

.args      0    00018c20    00000008     
                  00018c20    00000008     --HOLE-- [fill = 0]

.text.3    0    00056000    00001fa8     
                  00056000    000007d8     maclib_secure_cc13x2_tirtos7.a : mac_rx.o (.text.macRxFrameIsr)
                  000567d8    000005cc                                    : mac_radio_tx.o (.text.macRadioTxGo)
                  00056da4    00000540     nvocmp.o (.text.NVOCMP_initNvApi)
                  000572e4    000004fc     nvocmp.o (.text.NVOCMP_compactPage)
                  000577e0    00000498     rf_multiMode_cc13x2.a : RFCC26X2_multiMode.c.cc13x2.ticlang.o (.text.RF_fsmActiveState)
                  00057c78    0000032c     maclib_secure_cc13x2_tirtos7.a : mac_rx.o (.text.rxPayloadIsr)
                  00057fa4    00000004     api_mac.o (.text.ApiMac_mcpsDataReq)

.bss.1     0    200000d8    00000034     UNINITIALIZED
                  200000d8    00000034     (.common:dcBucket)

.bss.2     0    20000120    00001730     UNINITIALIZED
                  20000120    000002c0     rf_multiMode_cc13x2.a : RFCC26X2_multiMode.c.cc13x2.ticlang.o (.bss.RF_cmdPool)
                  200003e0    00000258     (.common:Cllc_associatedDevList)
                  20000638    00000200     cui.o (.bss.gTxBuff)
                  20000838    00000200     (.common:ti_sysbios_knl_Idle_taskStack)
                  20000a38    000001a5     (.common:menuBuff)
                  20000bdd    00000001     macTask.o (.bss._macTaskId)
                  20000bde    00000002     maclib_secure_cc13x2_tirtos7.a : mac_hl_patch.o (.bss.macEdScanISR.scanDurationMs)
                  20000be0    00000170     (.common:uart2CC26X2Objects)
                  20000d50    00000168     (.common:taskTbl)
                  20000eb8    00000100                                    : mac_radio.o (.bss.RF_object)
                  20000fb8    000000fa     (.common:enhancedAckBuf)
                  200010b2    00000002                                    : mac_radio.o (.bss.macSavedPanID)
                  200010b4    000000d8     (.common:ti_sysbios_family_arm_m3_Hwi_dispatchTable)
                  2000118c    000000b8     (.common:LEDObjects)
                  20001244    0000008c     (.common:FHPIB_db)
                  200012d0    00000088     (.common:FH_hnd)
                  20001358    00000088     (.common:macPib)
                  200013e0    0000007c     (.common:gpioCallbackFunctions)
                  2000145c    0000007c     (.common:gpioUserArgs)
                  200014d8    0000007a     (.common:FHNT_tableOpt)
                  20001552    00000006     (.common:FHNT_Dbg)
                  20001558    00000068     rf_multiMode_cc13x2.a : RFCC26X2_multiMode.c.cc13x2.ticlang.o (.bss.RF_ratModule)
                  200015c0    00000060     (.common:ti_sysbios_knl_ClockSupport_timerStruct)
                  20001620    00000058     (.common:ti_sysbios_knl_Idle_taskStruct)
                  20001678    00000054     (.common:macScan)
                  200016cc    00000050     cui.o (.bss.gClientsSemStruct)
                  2000171c    00000050     cui.o (.bss.gMenuSemStruct)
                  2000176c    00000050     cui.o (.bss.gStatusSemStruct)
                  200017bc    00000050     cui.o (.bss.gUartSemStruct)
                  2000180c    00000044     rf_multiMode_cc13x2.a : RFCC26X2_multiMode.c.cc13x2.ticlang.o (.bss.RF_clkInactivityObj)

.bss.3     0    20001870    00000b5e     UNINITIALIZED
                  20001870    00000050     (.common:CryptoResourceCC26XX_accessSemaphore)
                  200018c0    00000050     (.common:CryptoResourceCC26XX_operationSemaphore)
                  20001910    0000004c     (.common:cuiMultiMenuData)
                  2000195c    00000048     (.common:ButtonObjects)
                  200019a4    00000046     (.common:NVOCMP_nvHandle)
                  200019ea    00000002     (.common:macRxDataEntryOffset)
                  200019ec    00000044     rf_multiMode_cc13x2.a : RFCC26X2_multiMode.c.cc13x2.ticlang.o (.bss.RF_clkPowerUpObj)
                  20001a30    00000044     csf.o (.bss.broadcastClkStruct)
                  20001a74    00000044     csf.o (.bss.configClkStruct)
                  20001ab8    00000044     csf.o (.bss.joinClkStruct)
                  20001afc    00000044     csf.o (.bss.trackingClkStruct)
                  20001b40    00000042     (.common:FHFSM_Dbg)
                  20001b82    00000002     (.common:macTxCsmaBackoffDelay)
                  20001b84    00000004     driverlib.lib : osc.o (.bss.oscHfGlobals.0)
                  20001b88    00000040     (.common:RF_cmdIEEERx)
                  20001bc8    00000040     (.common:macSecurityPib)
                  20001c08    0000003c     rf_multiMode_cc13x2.a : RFCC26X2_multiMode.c.cc13x2.ticlang.o (.bss.RF_swiHwObj)
                  20001c44    0000003c     (.common:Collector_statistics)
                  20001c80    0000003c     (.common:macBeaconCoord)
                  20001cbc    00000038     (.common:FHNT_hnd)
                  20001cf4    00000038     (.common:macDeviceAction1)
                  20001d2c    00000034     (.common:macBeaconDevice)
                  20001d60    00000030     (.common:RF_cmdPropRadioDivSetup)
                  20001d90    00000030     (.common:RF_cmdPropRxAdv)
                  20001dc0    00000030     (.common:macMgmtAction1)
                  20001df0    00000030     (.common:macSrcExtAddrList)
                  20001e20    00000030     (.common:ti_sysbios_knl_Swi_readyQs)
                  20001e50    00000030     (.common:ti_sysbios_knl_Task_readyQs)
                  20001e80    0000002c     (.common:macCoord)
                  20001eac    0000002c     (.common:macDevice)
                  20001ed8    00000024     collector.o (.bss.dataRequestMsduMappingTable)
                  20001efc    00000020     ti_drivers_config.o (.bss.uart2RxRingBuffer0)
                  20001f1c    00000020     ti_drivers_config.o (.bss.uart2TxRingBuffer0)
                  20001f3c    00000020     (.common:RF_cmdIEEECsma)
                  20001f5c    00000020     (.common:RF_cmdPropTxAdv)
                  20001f7c    00000020     (.common:RF_cmdRadioSetup)
                  20001f9c    00000020     (.common:RF_params)
                  20001fbc    00000020     (.common:macBeacon)
                  20001fdc    00000020     (.common:udmaCC26XXObject)
                  20001ffc    0000001c     api_mac.o (.bss.appSemHandle)
                  20002018    0000001c     drivers_cc13x2.a : GPIOCC26X2.c.obj (.bss.gpioHwi)
                  20002034    0000001c     ti_sysbios_config.o (.bss.sem)
                  20002050    0000001c     (.common:BIOS_heapCallbackObject)
                  2000206c    0000001c     (.common:BIOS_rtsGate)
                  20002088    0000001c     (.common:CryptoResourceCC26XX_hwi)
                  200020a4    0000001c     (.common:RF_cmdPropCs)
                  200020c0    0000001c     (.common:RF_cmdPropCsSlotted)
                  200020dc    0000001c     (.common:macCoordAction2)
                  200020f8    0000001c     (.common:macReset)
                  20002114    0000001c     (.common:macSemHandle)
                  20002130    0000001c     (.common:macSrcShortAddrList)
                  2000214c    00000018     (.common:RF_cmdFsRx)
                  20002164    00000018     (.common:RF_cmdFsTx)
                  2000217c    00000018     (.common:RF_cmdIEEETx)
                  20002194    00000018     (.common:aesccmCC26XXObjects)
                  200021ac    00000018     (.common:macScanAction)
                  200021c4    00000014     maclib_secure_cc13x2_tirtos7.a : mac_symbol_timer.o (.bss.macSymbolPwrNotifyObj)
                  200021d8    00000014     drivers_cc13x2.a : Random.c.obj (.bss.state)
                  200021ec    00000014     (.common:RF_cmdRxAckCmd)
                  20002200    00000014     (.common:macAckDbg)
                  20002214    00000014     (.common:macDeviceAction2)
                  20002228    00000014     (.common:macMgmtAction2)
                  2000223c    00000012     (.common:macStatistics)
                  2000224e    00000002     (.common:rxCmdHandle)
                  20002250    00000010     (.common:macBeaconDeviceAction)
                  20002260    00000010     (.common:macCoordAction3)
                  20002270    00000010     (.common:macData)
                  20002280    00000010     (.common:macDataTxDelay)
                  20002290    00000010     (.common:macFrmFilter)
                  200022a0    00000010     (.common:macRxOutputIeee)
                  200022b0    0000000c     (.common:coexMetricsStruct)
                  200022bc    0000000c     (.common:macMain)
                  200022c8    0000000c     (.common:macRxOutputSubG)
                  200022d4    0000000a     (.common:FH_PibTbl)
                  200022de    00000008     (.common:ApiMac_extAddr)
                  200022e6    00000002     (.common:txCmdHandle)
                  200022e8    00000008     (.common:FHNT_tempTable)
                  200022f0    00000008     (.common:coexOverrideUseCases)
                  200022f8    00000008     (.common:macBeaconCoordAction1)
                  20002300    00000008     (.common:macCoordAction1)
                  20002308    00000008     (.common:macRxDataEntryQueue)
                  20002310    00000004     driverlib.lib : osc.o (.bss.oscHfGlobals.2)
                  20002314    00000004                   : osc.o (.bss.oscHfGlobals.3)
                  20002318    00000004                   : osc.o (.bss.oscHfGlobals.4)
                  2000231c    00000004     collector.o (.bss.sem)
                  20002320    00000004     (.common:AESCCM_handle)
                  20002324    00000004     (.common:FH_test_var)
                  20002328    00000004     (.common:HEAPMGR_SIZE)
                  2000232c    00000004     (.common:PowerCC26XX_swiKey)
                  20002330    00000004     (.common:PowerCC26XX_taskKey)
                  20002334    00000004     (.common:appThread)
                  20002338    00000004     (.common:collectorStatusLine)
                  2000233c    00000004     (.common:csfCuiHndl)
                  20002340    00000004     (.common:dcCritical)
                  20002344    00000004     (.common:dcLimited)
                  20002348    00000004     (.common:dcPtr)
                  2000234c    00000004     (.common:dcRegulated)
                  20002350    00000004     (.common:dcTimeUsed)
                  20002354    00000004     (.common:deviceStatusLine)
                  20002358    00000004     (.common:macCryptoDrvTblPtr)
                  2000235c    00000004     (.common:macPhyTxPower)
                  20002360    00000004     (.common:macPrevPeriodRatCount)
                  20002364    00000004     (.common:macRfDrvTblPtr)
                  20002368    00000004     (.common:macRxSymbol)
                  2000236c    00000004     (.common:macSymbolTimerRollover)
                  20002370    00000004     (.common:macSymbolTimerTrigger)
                  20002374    00000004     (.common:macThread)
                  20002378    00000004     (.common:macTimerActive)
                  2000237c    00000004     (.common:macTxTimestamp)
                  20002380    00000004     (.common:numJoinDevStatusLine)
                  20002384    00000004     (.common:pClockHandleEDScan)
                  20002388    00000004     (.common:pMacRadioConfig)
                  2000238c    00000004     (.common:pMaxPower)
                  20002390    00000004     (.common:pRfMode)
                  20002394    00000004     (.common:pRfPowerTable)
                  20002398    00000004     (.common:rxRadioBufferPtr)
                  2000239c    00000004     (.common:ti_sysbios_knl_Task_defaultStackHeap)
                  200023a0    00000004     (.common:ti_sysbios_runtime_System_atexitHandlers)
                  200023a4    00000004     (.common:timerAlignedQ)
                  200023a8    00000004     (.common:timerUnalignedQ)
                  200023ac    00000001     main.o (.bss._macTaskId)
                  200023ad    00000001     maclib_secure_cc13x2_tirtos7.a : mac_symbol_timer.o (.bss.macSymbolTimerEvents)
                  200023ae    00000001                                    : mac_radio.o (.bss.radioInitFlag)
                  200023af    00000001     (.common:AppTaskId)
                  200023b0    00000001     (.common:NVOCMP_size)
                  200023b1    00000001     (.common:appTaskId)
                  200023b2    00000001     (.common:dcStatus)
                  200023b3    00000001     (.common:gAction)
                  200023b4    00000001     (.common:lastRxPriority)
                  200023b5    00000001     (.common:lastTxPriority)
                  200023b6    00000001     (.common:macAckTxActive)
                  200023b7    00000001     (.common:macMgmt)
                  200023b8    00000001     (.common:macPanCoordinator)
                  200023b9    00000001     (.common:macPhyChannel)
                  200023ba    00000001     (.common:macPwr)
                  200023bb    00000001     (.common:macRxActive)
                  200023bc    00000001     (.common:macRxEnableFlags)
                  200023bd    00000001     (.common:macRxFilter)
                  200023be    00000001     (.common:macRxOutgoingAckFlag)
                  200023bf    00000001     (.common:macSpecUsecsPerSymbol)
                  200023c0    00000001     (.common:macSrcResIndex)
                  200023c1    00000001     (.common:macSymbolTimerImpending)
                  200023c2    00000001     (.common:macTaskId)
                  200023c3    00000001     (.common:macTxActive)
                  200023c4    00000001     (.common:macTxBe)
                  200023c5    00000001     (.common:macTxGpInterframeDelay)
                  200023c6    00000001     (.common:macTxType)
                  200023c7    00000001     (.common:macUnitBackoffPeriod)
                  200023c8    00000001     (.common:nvsCC26XXObjects)
                  200023c9    00000001     (.common:rxFhRsl)
                  200023ca    00000001     (.common:rxPromiscuousMode)
                  200023cb    00000001     (.common:rxSeqNum)
                  200023cc    00000001     (.common:txAckReq)
                  200023cd    00000001     (.common:txSeqn)

MODULE SUMMARY

       Module                                     code    ro data   rw data
       ------                                     ----    -------   -------
    .\application\
       main.o                                     268     8         118    
    +--+------------------------------------------+-------+---------+---------+
       Total:                                     268     8         118    
                                                                           
    .\application\collector\
       csf.o                                      5878    1432      782    
       collector.o                                3374    17        196    
    +--+------------------------------------------+-------+---------+---------+
       Total:                                     9252    1449      978    
                                                                           
    .\application\collector\link_controller\
       cllc.o                                     2284    57        768    
    +--+------------------------------------------+-------+---------+---------+
       Total:                                     2284    57        768    
                                                                           
    .\application\cui\
       cui.o                                      3048    417       1487   
    +--+------------------------------------------+-------+---------+---------+
       Total:                                     3048    417       1487   
                                                                           
    .\software_stack\ti15_4stack\mac\
       api_mac.o                                  1854    0         47     
       macTask.o                                  1042    19        54     
    +--+------------------------------------------+-------+---------+---------+
       Total:                                     2896    19        101    
                                                                           
    .\software_stack\ti15_4stack\mac\mac_settings\
       mac_settings.o                             496     0         436    
       mac_cfg.o                                  0       692       218    
       mac_user_config.o                          32      204       0      
    +--+------------------------------------------+-------+---------+---------+
       Total:                                     528     896       654    
                                                                           
    .\software_stack\ti15_4stack\nv\
       nvocmp.o                                   6378    0         153    
       crc.o                                      28      256       0      
    +--+------------------------------------------+-------+---------+---------+
       Total:                                     6406    256       153    
                                                                           
    .\syscfg\
       ti_drivers_config.o                        230     247       33917  
       ti_sysbios_config.o                        9622    2143      1740   
       ti_radio_config.o                          0       172       166    
       ti_devices_config.o                        0       88        0      
    +--+------------------------------------------+-------+---------+---------+
       Total:                                     9852    2650      35823  
                                                                           
    C:/ti/simplelink_cc13xx_cc26xx_sdk_6_30_01_03/kernel/tirtos7/packages/ti/sysbios/lib/ticlang/m4f/sysbios.a
       Hwi_asm_gnu.obj                            324     0         0      
       Hwi_asm_switch_gnu.obj                     118     0         0      
       TaskSupport_asm_gnu.obj                    64      0         0      
       boot_cortex_m.obj                          52      0         0      
    +--+------------------------------------------+-------+---------+---------+
       Total:                                     558     0         0      
                                                                           
    C:/ti/simplelink_cc13xx_cc26xx_sdk_6_30_01_03/source/ti/devices/cc13x2_cc26x2/driverlib/bin/ticlang/driverlib.lib
       osc.o                                      538     0         32     
       sys_ctrl.o                                 432     0         0      
       setup.o                                    424     0         0      
       aes.o                                      304     0         0      
       chipinfo.o                                 254     0         0      
       prcm.o                                     136     0         0      
       aux_sysif.o                                72      8         0      
       flash.o                                    60      0         0      
       cpu.o                                      32      0         0      
    +--+------------------------------------------+-------+---------+---------+
       Total:                                     2252    8         32     
                                                                           
    C:/ti/simplelink_cc13xx_cc26xx_sdk_6_30_01_03/source/ti/drivers/lib/ticlang/m4f/drivers_cc13x2.a
       UART2CC26X2.c.obj                          2316    21        0      
       PowerCC26X2.c.obj                          1834    84        372    
       UART2.c.obj                                1652    36        0      
       TRNGCC26XX.c.obj                           1000    0         104    
       NVSCC26XX.c.obj                            894     40        12     
       PowerCC26X2_calibrateRCOSC.c.obj           836     0         0      
       Button.c.obj                               688     30        0      
       LED.c.obj                                  700     8         0      
       AESCCMCC26XX.c.obj                         704     0         1      
       PowerCC26X2_calibrateRCOSC_helpers.c.obj   432     0         0      
       GPIOCC26X2.c.obj                           328     0         29     
       PowerCC26X2_helpers.c.obj                  318     0         0      
       RingBuf.c.obj                              300     0         0      
       CryptoResourceCC26XX.c.obj                 98      0         189    
       GPIOCC26XX.c.obj                           276     0         0      
       List.c.obj                                 208     0         0      
       Random.c.obj                               164     12        20     
       StructRingBuf.c.obj                        194     0         0      
       PWM.c.obj                                  166     24        1      
       UDMACC26XX.c.obj                           166     0         0      
       NVS.c.obj                                  160     4         1      
       GPIO.c.obj                                 88      0         0      
       AESCCM.c.obj                               42      16        0      
       CryptoUtils.c.obj                          54      0         0      
       CryptoKeyPlaintext.c.obj                   24      0         0      
       TRNG.c.obj                                 0       20        0      
    +--+------------------------------------------+-------+---------+---------+
       Total:                                     13642   295       729    
                                                                           
    C:/ti/simplelink_cc13xx_cc26xx_sdk_6_30_01_03/source/ti/drivers/rf/lib/ticlang/m4f/rf_multiMode_cc13x2.a
       RFCC26X2_multiMode.c.cc13x2.ticlang.o      10014   40        1316   
       rf_patch_cpe_prop.c.cc13x2.ticlang.o       104     736       1      
       rfc.c.cc13x2.ticlang.o                     268     0         0      
    +--+------------------------------------------+-------+---------+---------+
       Total:                                     10386   776       1317   
                                                                           
    C:/ti/simplelink_cc13xx_cc26xx_sdk_6_30_01_03/source/ti/ti154stack/lib/ticlang/m4f/maclib_osal_tirtos7_cc13x2_26x2.a
       osal_port.o                                1724    0         400    
       util_timer.o                               106     0         0      
       mac_util.o                                 94      0         0      
       osal_port_timers.o                         64      0         16     
    +--+------------------------------------------+-------+---------+---------+
       Total:                                     1988    0         416    
                                                                           
    C:/ti/simplelink_cc13xx_cc26xx_sdk_6_30_01_03/source/ti/ti154stack/lib/ticlang/m4f/maclib_secure_cc13x2_tirtos7.a
       mac_hl_patch.o                             9684    6         10     
       mac_radio_tx.o                             5150    0         14     
       mac.o                                      3490    0         193    
       mac_rx.o                                   3422    8         40     
       mac_tx.o                                   3198    0         43     
       mac_radio.o                                2792    40        323    
       hmac_global.o                              0       817       1366   
       mac_timer.o                                1474    0         0      
       hmac_rom_init.o                            16      1384      0      
       mac_symbol_timer.o                         1272    0         39     
       fh_global.o                                0       258       642    
       mac_duty_cycle.o                           768     16        98     
       mac_autopend.o                             758     0         3      
       fh_rom_init.o                              16      600       4      
       fh_ie_patch.o                              588     0         0      
       mac_rx_onoff.o                             572     0         1      
       mac_mcu.o                                  454     0         4      
       mac_low_level.o                            278     0         32     
       mac_sleep.o                                300     0         1      
       mac_pwr.o                                  242     0         1      
       lmac_rom_init.o                            16      204       0      
       icall_osal_rom_init.o                      64      108       0      
       saddr.o                                    96      0         0      
       rom_init_154.o                             22      0         16     
       lmac_global.o                              0       0         11     
    +--+------------------------------------------+-------+---------+---------+
       Total:                                     34672   3441      2841   
                                                                           
    C:\ti\ti_cgt_tiarmclang_1.3.0.LTS\lib\armv7em-ti-none-eabihf/c/libc.a
       strtol.c.obj                               332     0         0      
       aeabi_ctype.S.obj                          0       257       0      
       copy_decompress_lzss.c.obj                 106     0         0      
       atoi.c.obj                                 64      0         0      
       autoinit.c.obj                             60      0         0      
       _lock.c.obj                                26      0         8      
       args_main.c.obj                            20      0         0      
       memcpy_t2.S.obj                            18      0         0      
       copy_zero_init.c.obj                       16      0         0      
       copy_decompress_none.c.obj                 14      0         0      
       memset_t2.S.obj                            14      0         0      
       aeabi_portable.c.obj                       8       0         4      
    +--+------------------------------------------+-------+---------+---------+
       Total:                                     678     257       12     
                                                                           
    C:\ti\ti_cgt_tiarmclang_1.3.0.LTS\lib\clang/12.0.1/lib/armv7em-ti-none-eabihf/libclang_rt.builtins.a
       udivmoddi4.S.obj                           176     0         0      
       aeabi_memset.S.obj                         20      0         0      
       aeabi_uldivmod.S.obj                       20      0         0      
       aeabi_memcpy.S.obj                         4       0         0      
       aeabi_div0.c.obj                           2       0         0      
    +--+------------------------------------------+-------+---------+---------+
       Total:                                     222     0         0      
                                                                           
       Stack:                                     0       0         1376   
       Linker Generated:                          120     1055      0      
    +--+------------------------------------------+-------+---------+---------+
       Grand Total:                               99052   11584     46805  


LINKER GENERATED COPY TABLES

__TI_cinit_table @ 00019010 records: 7, size/record: 8, table size: 56
	.data: load addr=00018c28, load size=000003ab bytes, run addr=200023d0, run size=00000dab bytes, compression=lzss
	.TI.bound:dmaUart1RxControlTableEntry: load addr=00018fe0, load size=00000008 bytes, run addr=20001850, run size=00000010 bytes, compression=zero_init
	.TI.bound:dmaUart1TxControlTableEntry: load addr=00018fe8, load size=00000008 bytes, run addr=20001860, run size=00000010 bytes, compression=zero_init
	.bss.1: load addr=00018ff0, load size=00000008 bytes, run addr=200000d8, run size=00000034 bytes, compression=zero_init
	.bss.2: load addr=00018ff8, load size=00000008 bytes, run addr=20000120, run size=00001730 bytes, compression=zero_init
	.bss.3: load addr=00019000, load size=00000008 bytes, run addr=20001870, run size=00000b5e bytes, compression=zero_init
	.data:RAM_MAC_BASE_ADDR: load addr=00019008, load size=00000008 bytes, run addr=2000010c, run size=00000010 bytes, compression=zero_init


LINKER GENERATED HANDLER TABLE

__TI_handler_table @ 00018fd4 records: 3, size/record: 4, table size: 12
	index: 0, handler: __TI_zero_init
	index: 1, handler: __TI_decompress_lzss
	index: 2, handler: __TI_decompress_none


FAR CALL TRAMPOLINES

callee name               trampoline name
   callee addr  tramp addr   call addr  call info
--------------  -----------  ---------  ----------------
MAC_MlmeStartReq          $Tramp$TT$L$PI$$MAC_MlmeStartReq
   100364e1     00018ba8     00018ac2   api_mac.o (.text.ApiMac_mlmeStartReq)
MAC_MlmeOrphanRsp         $Tramp$TT$L$PI$$MAC_MlmeOrphanRsp
   1003648d     00018bb0     00018ab6   api_mac.o (.text.ApiMac_mlmeOrphanRsp)
MAC_MlmeGetReq            $Tramp$TT$L$PI$$MAC_MlmeGetReq
   1003a169     00018bb8     00018aa6   api_mac.o (.text.ApiMac_mlmeGetReqArray)
                             00018aaa   api_mac.o (.text.ApiMac_mlmeGetReqUint16)
                             00018aae   api_mac.o (.text.ApiMac_mlmeGetReqUint32)
                             00018ab2   api_mac.o (.text.ApiMac_mlmeGetReqUint8)
MAC_MlmeDisassociateReq   $Tramp$TT$L$PI$$MAC_MlmeDisassociateReq
   10039dc1     00018bc0     00018aa2   api_mac.o (.text.ApiMac_mlmeDisassociateReq)
MAC_MlmeAssociateRsp      $Tramp$TT$L$PI$$MAC_MlmeAssociateRsp
   10036471     00018bc8     00018a9e   api_mac.o (.text.ApiMac_mlmeAssociateRsp)
MAC_MlmeSetSecurityReq    $Tramp$TT$L$PI$$MAC_MlmeSetSecurityReq
   1003a99d     00018bd0     0001819a   api_mac.o (.text.ApiMac_mlmeSetSecurityReqUint16)
                             00018aba   api_mac.o (.text.ApiMac_mlmeSetSecurityReqArray)
                             00018abe   api_mac.o (.text.ApiMac_mlmeSetSecurityReqStruct)
MAC_MlmeResetReq          $Tramp$TT$L$PI$$MAC_MlmeResetReq
   100391c9     00018bd8     000107c2   api_mac.o (.text.ApiMac_init)
MAC_EnableFH              $Tramp$TT$L$PI$$MAC_EnableFH
   10039cbd     00018be0     000107bc   api_mac.o (.text.ApiMac_init)
macMainSetTaskId          $Tramp$TT$L$PI$$macMainSetTaskId
   100388e1     00018be8     0000f19c   macTask.o (.text.macTaskInit)
MAC_MlmeSetReq            $Tramp$TT$L$PI$$MAC_MlmeSetReq
   10039ec5     00018bf0     0000d724   api_mac.o (.text.ApiMac_mlmeSetReqArray)
                             0001816a   api_mac.o (.text.ApiMac_mlmeSetReqBool)
                             0001817a   api_mac.o (.text.ApiMac_mlmeSetReqUint16)
                             0001818a   api_mac.o (.text.ApiMac_mlmeSetReqUint8)
macExecute                $Tramp$TT$L$PI$$macExecute
   1003871d     00018bf8     0000484a   macTask.o (.text.macTaskFxn)
                             0000488a   macTask.o (.text.macTaskFxn)
                             0000495e   macTask.o (.text.macTaskFxn)
                             00018840   macTask.o (.text.OUTLINED_FUNCTION_0)
                             00018872   macTask.o (.text.OUTLINED_FUNCTION_1)
mac_msg_deallocate        $Tramp$TT$L$PI$$mac_msg_deallocate
   100387f9     00018c00     00004834   macTask.o (.text.macTaskFxn)
                             0000ad66   macTask.o (.text.MAC_CbackEvent)
                             000186c0   macTask.o (.text.OUTLINED_FUNCTION_3)
macCommStatusInd          $Tramp$TT$L$PI$$macCommStatusInd
   100393ed     00018c08     00004826   macTask.o (.text.macTaskFxn)
MAC_InitCoord             $Tramp$TT$L$PI$$MAC_InitCoord
   1003624d     00018c10     0000478e   macTask.o (.text.macTaskFxn)
MAC_Init                  $Tramp$TT$L$PI$$MAC_Init
   100399cd     00018c18     0000478a   macTask.o (.text.macTaskFxn)

[15 trampolines]
[29 trampoline calls]


GLOBAL SYMBOLS: SORTED ALPHABETICALLY BY Name 

address   name                                                               
-------   ----                                                               
00018809  AESCCM_Operation_init                                              
00018141  AESCCM_Params_init                                                 
000185e1  AESCCM_close                                                       
0000282c  AESCCM_config                                                      
00012a4d  AESCCM_construct                                                   
000026e8  AESCCM_defaultParams                                               
20002320  AESCCM_handle                                                      
00017e75  AESCCM_init                                                        
000189a9  AESCCM_oneStepDecrypt                                              
000189af  AESCCM_oneStepEncrypt                                              
00018151  AESCCM_open                                                        
00014bad  ApiMac_buildMsgCapInfo                                             
00014b39  ApiMac_convertCapabilityInfo                                       
200022de  ApiMac_extAddr                                                     
2000274a  ApiMac_gpOffsetToms                                                
00010775  ApiMac_init                                                        
00057fa5  ApiMac_mcpsDataReq                                                 
00018a9f  ApiMac_mlmeAssociateRsp                                            
00018aa3  ApiMac_mlmeDisassociateReq                                         
00018aa7  ApiMac_mlmeGetReqArray                                             
00018aab  ApiMac_mlmeGetReqUint16                                            
00018aaf  ApiMac_mlmeGetReqUint32                                            
00018ab3  ApiMac_mlmeGetReqUint8                                             
00018ab7  ApiMac_mlmeOrphanRsp                                               
0000003d  ApiMac_mlmeScanReq                                                 
0000d70d  ApiMac_mlmeSetReqArray                                             
00018161  ApiMac_mlmeSetReqBool                                              
00018171  ApiMac_mlmeSetReqUint16                                            
00018181  ApiMac_mlmeSetReqUint8                                             
00018abb  ApiMac_mlmeSetSecurityReqArray                                     
00018abf  ApiMac_mlmeSetSecurityReqStruct                                    
00018191  ApiMac_mlmeSetSecurityReqUint16                                    
00018ac3  ApiMac_mlmeStartReq                                                
2000274b  ApiMac_mtDataReqTxOptionGp                                         
00002cad  ApiMac_processIncoming                                             
000185ed  ApiMac_registerCallbacks                                           
00018ac7  ApiMac_secAddDevice                                                
00018acb  ApiMac_secAddKeyInitFrameCounter                                   
00018acf  ApiMac_secDeleteDevice                                             
200023af  AppTaskId                                                          
20002888  BIOS_Module_state                                                  
00013839  BIOS_atExitFunc                                                    
00017a41  BIOS_exitFunc                                                      
20002050  BIOS_heapCallbackObject                                            
000159c9  BIOS_init                                                          
000185f9  BIOS_linkedWithIncorrectBootLibrary                                
000059af  BIOS_nullFunc                                                      
000164d1  BIOS_registerRTSLock                                               
00016a65  BIOS_removeRTSLock                                                 
2000206c  BIOS_rtsGate                                                       
000175b5  BIOS_rtsLock                                                       
00017a59  BIOS_rtsUnlock                                                     
00018605  BIOS_start                                                         
000130ad  BIOS_startFunc                                                     
00017d41  Board_init                                                         
0000963b  Board_initHook                                                     
00013011  Board_sendExtFlashByte                                             
00012d41  Board_shutDownExtFlash                                             
000159f9  Board_wakeUpExtFlash                                               
2000195c  ButtonObjects                                                      
000181a1  Button_Params_init                                                 
00002708  Button_config                                                      
00000627  Button_count                                                       
00002660  Button_defaultParams                                               
000124d1  Button_gpioCallbackFxn                                             
0000b2fd  Button_open                                                        
000189b5  Button_setCallback                                                 
0000eb4d  CUI_clientOpen                                                     
00018813  CUI_clientParamsInit                                               
00007d91  CUI_init                                                           
000175d1  CUI_menuActionBack                                                 
0001387d  CUI_menuActionHelp                                                 
000189bb  CUI_paramsInit                                                     
00003a39  CUI_processMenuUpdate                                              
00006641  CUI_registerMenu                                                   
00008f79  CUI_statusLinePrintf                                               
0000a8e5  CUI_statusLineResourceRequest                                      
000138c1  Cllc_addSecDevice                                                  
200003e0  Cllc_associatedDevList                                             
20002a2e  Cllc_devShortAddr                                                  
20002a2c  Cllc_events                                                        
00015f31  Cllc_findDevice                                                    
000181b1  Cllc_getChanMask                                                   
000181c1  Cllc_getDefaultKey                                                 
00015a29  Cllc_getFormingPanId                                               
0000ed7d  Cllc_init                                                          
00002834  Cllc_keySource                                                     
00009a9d  Cllc_process                                                       
00012581  Cllc_removeDevice                                                  
0000bb4d  Cllc_restoreNetwork                                                
000181d1  Cllc_securityCheck                                                 
00017d57  Cllc_securityFill                                                  
0000fae1  Cllc_securityInit                                                  
00013f21  Cllc_sendDisassociationRequest                                     
00017a71  Cllc_setChanMask                                                   
00016521  Cllc_setDefaultKey                                                 
000181e1  Cllc_setFormingPanId                                               
00014be5  Cllc_setJoinPermit                                                 
00018069  Cllc_startNetwork                                                  
0001881d  ClockP_Params_init                                                 
00015a59  ClockP_construct                                                   
000152ad  ClockP_create                                                      
00018611  ClockP_delete                                                      
00018ad3  ClockP_destruct                                                    
000181f1  ClockP_getCpuFreq                                                  
00018ad7  ClockP_getSystemTickPeriod                                         
00018adb  ClockP_getSystemTicks                                              
00018adf  ClockP_getTimeout                                                  
00018ae3  ClockP_isActive                                                    
00018ae7  ClockP_setTimeout                                                  
00018aeb  ClockP_start                                                       
000189c1  ClockP_stop                                                        
20002a8a  Collector_events                                                   
0000c645  Collector_init                                                     
20002a9c  Collector_macCallbacks                                             
00003d05  Collector_process                                                  
0000bc19  Collector_sendConfigRequest                                        
00013905  Collector_sendDeviceTypeRequest                                    
00013949  Collector_sendToggleLedRequest                                     
20001c44  Collector_statistics                                               
0001703d  Collector_updateStats                                              
0001861d  CryptoKeyPlaintext_initBlankKey                                    
00018629  CryptoKeyPlaintext_initKey                                         
20001870  CryptoResourceCC26XX_accessSemaphore                               
00011d75  CryptoResourceCC26XX_constructRTOSObjects                          
20002088  CryptoResourceCC26XX_hwi                                           
200018c0  CryptoResourceCC26XX_operationSemaphore                            
00015275  CryptoUtils_buffersMatch                                           
00013f61  Csf_IndicateOrphanReJoin                                           
00010e75  Csf_clearAllNVItems                                                
0001705d  Csf_closeNwk                                                       
00013fa1  Csf_deviceConfigUpdate                                             
00013fe1  Csf_deviceDisassocUpdate                                           
000175ed  Csf_deviceNotActiveUpdate                                          
0000cf8d  Csf_deviceSensorDataUpdate                                         
00014021  Csf_deviceSensorDeviceTypeResponseUpdate                           
0000b669  Csf_deviceUpdate                                                   
00016549  Csf_displayError                                                   
20002b4c  Csf_events                                                         
0001893f  Csf_free                                                           
00010ee1  Csf_getDevice                                                      
0000fd4d  Csf_getDeviceExtAdd                                                
0000ee05  Csf_getDeviceItem                                                  
00015f5d  Csf_getDeviceShort                                                 
000125d9  Csf_getFrameCounter                                                
00015f89  Csf_getNetworkInformation                                          
00014c1d  Csf_getNumDeviceListEntries                                        
00015a89  Csf_identifyLED                                                    
00009bb1  Csf_init                                                           
00016571  Csf_initializeBroadcastClock                                       
00016599  Csf_initializeConfigClock                                          
00016aad  Csf_initializeIdentifyClock                                        
000165c1  Csf_initializeTrackingClock                                        
00018635  Csf_isConfigTimerActive                                            
00018641  Csf_isTrackingTimerActive                                          
20002b60  Csf_keys                                                           
00018aef  Csf_malloc                                                         
000130f9  Csf_networkUpdate                                                  
0001707d  Csf_openNwk                                                        
000084e1  Csf_processEvents                                                  
00014061  Csf_removeDeviceListItem                                           
00010365  Csf_sendDisassociateMsg                                            
000152e1  Csf_setBroadcastClock                                              
00015315  Csf_setConfigClock                                                 
00015349  Csf_setJoinPermitClock                                             
0001537d  Csf_setTrackingClock                                               
0001398d  Csf_stateChangeUpdate                                              
0000c0df  Csf_toggleResponseReceived                                         
000107e5  Csf_updateFrameCounter                                             
10030ad1  FHAPI_SFDRxCb                                                      
10030501  FHAPI_completeRxCb                                                 
1003035d  FHAPI_completeTxCb                                                 
10030bad  FHAPI_getBitCount                                                  
10030a81  FHAPI_getRemDT                                                     
10030b81  FHAPI_getTxChHoppingFunc                                           
00014c55  FHAPI_getTxParams                                                  
100308d1  FHAPI_getTxParams_old                                              
10030809  FHAPI_reset                                                        
10030689  FHAPI_sendData                                                     
10030b51  FHAPI_setStateCb                                                   
10030101  FHAPI_start                                                        
10030989  FHAPI_startBS                                                      
10030b11  FHAPI_stopAsync                                                    
0000c271  FHDATA_CheckMinTxOffTime                                           
10031011  FHDATA_asyncMinTxOffTimerCb                                        
10031029  FHDATA_checkPktFromQueue                                           
10030fb5  FHDATA_chkASYNCStartReq                                            
00010855  FHDATA_getASYNCDelay                                               
10030d61  FHDATA_getPktFromQueue                                             
10030bd1  FHDATA_procASYNCReq                                                
1003103d  FHDATA_procEDFEReq                                                 
10030e89  FHDATA_purgePktFromQueue                                           
10030e05  FHDATA_purgeUnSupportedFrameTypes                                  
10030efd  FHDATA_requeuePkt                                                  
10031051  FHDATA_startEDFEReq                                                
10031065  FHDATA_startEDFETimer                                              
10030fed  FHDATA_updateCCA                                                   
10031129  FHDH1CF_getBCChannelNum                                            
100312f5  FHDH1CF_getBcCh                                                    
10031209  FHDH1CF_getCh                                                      
1003125d  FHDH1CF_getChannelNum                                              
100312b1  FHDH1CF_getTxChannelNum                                            
10031069  FHDH1CF_hashword                                                   
100311ad  FHDH1CF_mapChIdxChannel                                            
20001b40  FHFSM_Dbg                                                          
00018af3  FHIEPATCH_extractHie                                               
00018af7  FHIEPATCH_extractPie                                               
00018afb  FHIEPATCH_genHie                                                   
00018aff  FHIEPATCH_genPieContent                                            
00018b03  FHIEPATCH_getHieLen                                                
00018b07  FHIEPATCH_getPieContentLen                                         
00018827  FHIEPATCH_getPieId                                                 
00018b0b  FHIEPATCH_parseHie                                                 
00018b0f  FHIEPATCH_parsePie                                                 
20002c4c  FHIE_channelPlan                                                   
1003230d  FHIE_extractHie                                                    
1003197d  FHIE_extractPie                                                    
10032905  FHIE_gen                                                           
1003248d  FHIE_genBTIE                                                       
10031fed  FHIE_genCommonInformation                                          
10032689  FHIE_genExcludedChannelMask                                        
100323cd  FHIE_genExcludedChannelRanges                                      
10031d91  FHIE_genHie                                                        
1003210d  FHIE_genPie                                                        
10031325  FHIE_genPieContent                                                 
10032755  FHIE_genUTIE                                                       
00011459  FHIE_getCcaSfdTime                                                 
100326f1  FHIE_getChannelPlan                                                
100327b1  FHIE_getCommonInformationLen                                       
10032859  FHIE_getExcludedChannelControl                                     
10032939  FHIE_getHie                                                        
10032619  FHIE_getHieLen                                                     
1003296d  FHIE_getLen                                                        
100328cf  FHIE_getPie                                                        
1003220d  FHIE_getPieContentLen                                              
10032599  FHIE_getPieLen                                                     
10032895  FHIE_getSubPie                                                     
10032805  FHIE_isChannelPlanValid                                            
10031ba9  FHIE_parseCommonInformation                                        
10031ec9  FHIE_parseHie                                                      
10031699  FHIE_parsePie                                                      
10032cf5  FHMGR_BCTimerEventUpd                                              
1003299d  FHMGR_bcTimerIsrCb                                                 
10032d11  FHMGR_macCancelFHTimer                                             
10032d29  FHMGR_macGetElapsedFHTime                                          
10032c1d  FHMGR_macStartFHTimer                                              
10032cc9  FHMGR_macStartOneShotTimer                                         
10032d41  FHMGR_pendBcChUpdate                                               
10032d47  FHMGR_pendUcChUpdate                                               
10032bb5  FHMGR_ucTimerIsrCb                                                 
10032c75  FHMGR_updateHopping                                                
10032b45  FHMGR_updateRadioBCChannel                                         
10032acd  FHMGR_updateRadioUCChannel                                         
10033119  FHNT_AddDeviceCB                                                   
20001552  FHNT_Dbg                                                           
100337b1  FHNT_DelDeviceCB                                                   
1003374d  FHNT_addOptEntry                                                   
10033381  FHNT_addTempEUI                                                    
10033aa9  FHNT_assessTime                                                    
10033209  FHNT_createEntry                                                   
100332c5  FHNT_createFixedEntry                                              
000139d1  FHNT_delTempIndex                                                  
10033969  FHNT_getAvailEntry                                                 
100339f9  FHNT_getEUI                                                        
10032fe1  FHNT_getEntry                                                      
100335f5  FHNT_getFixedEntry                                                 
100338c1  FHNT_getFixedNTIndexFromTempIndex                                  
10033671  FHNT_getNTIndexFromTempIndex                                       
100336e5  FHNT_getOptEntry                                                   
100334c5  FHNT_getRemoveEntry                                                
10032ea1  FHNT_getRemoveEntryFromTemp                                        
1003355d  FHNT_getRemoveFixedEntry                                           
20001cbc  FHNT_hnd                                                           
10033a75  FHNT_init                                                          
10033429  FHNT_initTempTable                                                 
10032d4d  FHNT_purgeEntry                                                    
10033a3d  FHNT_purgeTimerIsrCb                                               
10033915  FHNT_putEntry                                                      
100339b1  FHNT_putFixedEntry                                                 
10033811  FHNT_reset                                                         
200014d8  FHNT_tableOpt                                                      
200022e8  FHNT_tempTable                                                     
20001244  FHPIB_db                                                           
00001c60  FHPIB_defaults                                                     
10033ca5  FHPIB_get                                                          
10033d25  FHPIB_getIndex                                                     
10033cf5  FHPIB_getLen                                                       
10033d41  FHPIB_reset                                                        
10033ac9  FHPIB_set                                                          
10033d59  FHSM_event                                                         
10033dcd  FHUTIL_adjBackOffDur                                               
100343fd  FHUTIL_assert                                                      
10034411  FHUTIL_calcUfsi                                                    
100343e5  FHUTIL_compBfioTxTime                                              
1003441b  FHUTIL_elapsedTime                                                 
10033f09  FHUTIL_getBcTxParams                                               
100341c1  FHUTIL_getBitCounts                                                
100342a9  FHUTIL_getCh0                                                      
10034219  FHUTIL_getChannelSpacing                                           
100340cd  FHUTIL_getCurBfio                                                  
10034261  FHUTIL_getCurUfsi                                                  
100343c9  FHUTIL_getElapsedTime                                              
10034149  FHUTIL_getGuardTime                                                
100342e1  FHUTIL_getMaxChannels                                              
1003404d  FHUTIL_getTxChannel                                                
10034319  FHUTIL_getTxUfsi                                                   
100343a1  FHUTIL_getUcChannel                                                
1003441f  FHUTIL_noAction                                                    
10034349  FHUTIL_updateBcNumChannels                                         
10034375  FHUTIL_updateUcNumChannels                                         
10033fc9  FHUTIl_updateBTIE                                                  
2000309c  FH_FSM                                                             
200022d4  FH_PibTbl                                                          
000013c0  FH_ROM_Flash_JT                                                    
00018201  FH_ROM_Init                                                        
200012d0  FH_hnd                                                             
000019a1  FH_stateMatrix                                                     
20002324  FH_test_var                                                        
200030e0  FH_txTiming                                                        
10033d9d  FSM_transaction_debug                                              
00002718  GPIO_config                                                        
00017a89  GPIO_disableInt                                                    
00013a15  GPIO_hwiIntFxn                                                     
0000a1f5  GPIO_init                                                          
000010df  GPIO_pinLowerBound                                                 
00001b93  GPIO_pinUpperBound                                                 
00017e89  GPIO_read                                                          
00014599  GPIO_resetConfig                                                   
00017609  GPIO_setCallback                                                   
0000ebd9  GPIO_setConfig                                                     
00015ab9  GPIO_setInterruptConfig                                            
00017625  GPIO_setMux                                                        
00018211  GPIO_write                                                         
00012631  HEAPMGR_GETLARGESTFREEBUF                                          
20002328  HEAPMGR_SIZE                                                       
00000628  HMAC_ROM_Flash_JT                                                  
00018221  HMAC_ROM_Init                                                      
00018231  HwiP_Params_init                                                   
000145d5  HwiP_construct                                                     
00018b13  HwiP_destruct                                                      
0001864d  HwiP_disable                                                       
00018b17  HwiP_enableInterrupt                                               
00017d6d  HwiP_interruptsEnabled                                             
00018241  HwiP_post                                                          
000189c7  HwiP_restore                                                       
00017d83  HwiP_setFunc                                                       
00017641  HwiP_setPriority                                                   
00002148  ICALL_OSAL_ROM_Flash_JT                                            
UNDEFED   ITM_flush                                                          
UNDEFED   ITM_restore                                                        
00018251  Icall_Osal_ROM_Init                                                
2000118c  LEDObjects                                                         
00018421  LED_Params_init                                                    
00002728  LED_config                                                         
000026e5  LED_count                                                          
0000283c  LED_defaultParams                                                  
00009cc1  LED_open                                                           
000144e1  LED_setBrightnessLevel                                             
0001451f  LED_setOff                                                         
00014c8d  LED_setOn                                                          
00010e05  LED_startBlinking                                                  
00016f09  LED_stopBlinking                                                   
000179a3  LED_toggle                                                         
00001b94  LMAC_ROM_Flash_JT                                                  
00018261  LMAC_ROM_Init                                                      
00017d99  List_clearList                                                     
00016f2b  List_get                                                           
00016959  List_insert                                                        
00016ad1  List_put                                                           
0001697f  List_putHead                                                       
000165e9  List_remove                                                        
00016611  MAC_AbortScan                                                      
00018271  MAC_CbackCheckPending                                              
0000acb1  MAC_CbackEvent                                                     
00018281  MAC_CbackQueryRetransmit                                           
10039cbd  MAC_EnableFH                                                       
1003a1b9  MAC_GetPHYParamReq                                                 
100399cd  MAC_Init                                                           
10034849  MAC_InitBeaconCoord                                                
10035159  MAC_InitBeaconDevice                                               
1003624d  MAC_InitCoord                                                      
10037c45  MAC_InitDevice                                                     
00007861  MAC_InitFH                                                         
10036e05  MAC_McpsDataAlloc                                                  
00007139  MAC_McpsDataReq                                                    
10036455  MAC_McpsPurgeReq                                                   
10037ea5  MAC_MlmeAssociateReq                                               
10036471  MAC_MlmeAssociateRsp                                               
10039dc1  MAC_MlmeDisassociateReq                                            
10039ce1  MAC_MlmeFHGetReq                                                   
10039d01  MAC_MlmeFHGetReqSize                                               
10039d21  MAC_MlmeFHSetReq                                                   
1003b159  MAC_MlmeGetPointerSecurityReq                                      
1003a169  MAC_MlmeGetReq                                                     
1003a275  MAC_MlmeGetReqSize                                                 
1003af09  MAC_MlmeGetSecurityReq                                             
1003b101  MAC_MlmeGetSecurityReqSize                                         
1003648d  MAC_MlmeOrphanRsp                                                  
10037ebd  MAC_MlmePollReq                                                    
100391c9  MAC_MlmeResetReq                                                   
0000caa1  MAC_MlmeScanReq                                                    
10039ec5  MAC_MlmeSetReq                                                     
1003a99d  MAC_MlmeSetSecurityReq                                             
100364e1  MAC_MlmeStartReq                                                   
10039ddd  MAC_MlmeSyncReq                                                    
10039df5  MAC_MlmeWSAsyncReq                                                 
00018659  MAC_PwrMode                                                        
000140a1  MAC_PwrNextTimeout                                                 
00014cc5  MAC_PwrOffReq                                                      
00017aa1  MAC_PwrOnReq                                                       
10039e55  MAC_RandomByte                                                     
0000fb5d  MAC_ResumeReq                                                      
1003a1f9  MAC_SetPHYParamReq                                                 
00014cfd  MAC_SrcMatchAckAllPending                                          
0000e2c5  MAC_SrcMatchAddEntry                                               
00017e9d  MAC_SrcMatchCheckAllPending                                        
00014611  MAC_SrcMatchCheckResult                                            
00014d35  MAC_SrcMatchDeleteEntry                                            
00013145  MAC_SrcMatchEnable                                                 
00015ae9  MAC_SrcMatchSetDefaultPend                                         
00015995  MAC_SrcMatchSetPend                                                
10039d41  MAC_StartFH                                                        
10039c69  MAC_YieldReq                                                       
00018291  Main_assertHandler                                                 
20002fc6  Main_assertReason                                                  
000189cd  Main_excHandler                                                    
20002ae4  Main_user1Cfg                                                      
00008611  NOROM_AESWriteToKeyStore                                           
00013521  NOROM_AUXSYSIFOpModeChange                                         
00018665  NOROM_CPUcpsid                                                     
00018671  NOROM_CPUcpsie                                                     
00018947  NOROM_CPUdelay                                                     
0000fa61  NOROM_ChipInfo_GetChipType                                         
00012ced  NOROM_ChipInfo_GetHwRevision                                       
0001751d  NOROM_FlashProgram                                                 
0001753b  NOROM_FlashSectorErase                                             
0000cb55  NOROM_OSCHF_AttemptToSwitchToXosc                                  
0000fdc5  NOROM_OSCHF_SwitchToRcOscTurnOffXosc                               
000163a9  NOROM_OSCHF_TurnOnXosc                                             
0000fe3d  NOROM_OSC_CapArrayAdjustWorkaround_Boot                            
00013191  NOROM_OSC_HPOSCRelativeFrequencyOffsetGet                          
00013a59  NOROM_PRCMPowerDomainsAllOff                                       
00013a9d  NOROM_PRCMPowerDomainsAllOn                                        
00012135  NOROM_RFCAnaDivTxOverride                                          
000182a1  NOROM_RFCCpeIntGetAndClear                                         
0000cf8b  NOROM_RFCCpePatchReset                                             
0001709d  NOROM_RFCDoorbellSendTo                                            
000182b1  NOROM_RFCHwIntGetAndClear                                          
000170bd  NOROM_RFCOverrideSearch                                            
00018b1b  NOROM_RFCOverrideUpdate                                            
00013569  NOROM_RFCSynthPowerDown                                            
0000b055  NOROM_SetupTrimDevice                                              
0001464d  NOROM_SysCtrlIdle                                                  
0000f661  NOROM_SysCtrlSetRechargeBeforePowerDown                            
0000a9d9  NOROM_SysCtrlStandby                                               
00015e79  NOROM_ThisLibraryIsFor_CC13x2_CC26x2_HwRev20AndLater_HaltIfViolated
0000ff2d  NVOCMP_loadApiPtrs                                                 
200019a4  NVOCMP_nvHandle                                                    
200023b0  NVOCMP_size                                                        
0001894f  NVSCC26XX_close                                                    
000189d3  NVSCC26XX_control                                                  
00015b19  NVSCC26XX_erase                                                    
00002488  NVSCC26XX_fxnTable                                                 
000170dd  NVSCC26XX_getAttrs                                                 
00013229  NVSCC26XX_init                                                     
00017ab9  NVSCC26XX_lock                                                     
0000ffa5  NVSCC26XX_open                                                     
00013275  NVSCC26XX_read                                                     
00018689  NVSCC26XX_unlock                                                   
00009fe5  NVSCC26XX_write                                                    
000027b0  NVS_config                                                         
000026e6  NVS_count                                                          
000028c0  NVS_defaultParams                                                  
000189d9  NVS_erase                                                          
000189df  NVS_getAttrs                                                       
0001600d  NVS_init                                                           
000135b1  NVS_open                                                           
0001843d  NVS_read                                                           
0001808d  NVS_write                                                          
00015419  OsalPortTimers_cleanUpTimers                                       
000186c5  OsalPortTimers_registerCleanupEvent                                
000163d5  OsalPort_buildUint32                                               
000117fd  OsalPort_clearEvent                                                
000140e1  OsalPort_deleteTimer                                               
000188ef  OsalPort_enterCS                                                   
00018b1f  OsalPort_free                                                      
00016639  OsalPort_heapGetStats                                              
0000fbd9  OsalPort_heapInit                                                  
00018a03  OsalPort_leaveCS                                                   
00018b23  OsalPort_malloc                                                    
00017695  OsalPort_memcmp                                                    
00018311  OsalPort_memcpy                                                    
00016af5  OsalPort_msgAllocate                                               
00017559  OsalPort_msgDeallocate                                             
000169a5  OsalPort_msgDequeue                                                
00016661  OsalPort_msgEnqueue                                                
00014121  OsalPort_msgEnqueueMax                                             
00015b49  OsalPort_msgExtract                                                
000179d7  OsalPort_msgPush                                                   
00012195  OsalPort_msgReceive                                                
00012689  OsalPort_msgSend                                                   
000109a5  OsalPort_pwrmgrTaskState                                           
0001544d  OsalPort_registerTask                                              
00011dd5  OsalPort_setEvent                                                  
0000f7e1  OsalPort_setTimer                                                  
000186d1  OsalPort_stopTimer                                                 
00014e15  OsalPort_waitEvent                                                 
00018321  PWM_Params_init                                                    
00018a09  PWM_close                                                          
UNDEFED   PWM_config                                                         
UNDEFED   PWM_count                                                          
00002600  PWM_defaultParams                                                  
00013ae1  PWM_init                                                           
00014161  PWM_open                                                           
00018a0f  PWM_setDuty                                                        
00018a15  PWM_start                                                          
000141a1  PowerCC26X2_RCOSC_clockFunc                                        
00006989  PowerCC26X2_auxISR                                                 
00009dd1  PowerCC26X2_calibrate                                              
00002674  PowerCC26X2_config                                                 
000170fd  PowerCC26X2_disableTCXOQual                                        
0001711d  PowerCC26X2_enableTCXOQual                                         
00016b19  PowerCC26X2_getOscHfSourceReady                                    
00011861  PowerCC26X2_initiateCalibration                                    
200023d0  PowerCC26X2_module                                                 
000186dd  PowerCC26X2_oscClockSourceGet                                      
00018331  PowerCC26X2_oscCtlClearXtal                                        
00014e4d  PowerCC26X2_oscDisableQualifiers                                   
00018b27  PowerCC26X2_oschfSwitchToRcosc                                     
0001896f  PowerCC26X2_oschfTrySwitchToXosc                                   
00018341  PowerCC26X2_prcmEnableCacheRetention                               
00018351  PowerCC26X2_readCtrim                                              
00018361  PowerCC26X2_readCtrimFract                                         
00018371  PowerCC26X2_readRtrim                                              
000141e1  PowerCC26X2_setAclkRefSrc                                          
000186e9  PowerCC26X2_setPeriphDeepSleepEnable                               
00016b3d  PowerCC26X2_setSubSecIncToXoscLf                                   
00014689  PowerCC26X2_setTdcClkSrc24M                                        
00018381  PowerCC26X2_switchToTCXO                                           
000186f5  PowerCC26X2_sysCtrlGetResetSource                                  
00018b2b  PowerCC26X2_sysCtrlIdle                                            
000188f9  PowerCC26X2_sysCtrlStandby                                         
00018701  PowerCC26X2_sysCtrlVoltageConditionalControl                       
00018b2f  PowerCC26X2_turnOnXosc                                             
000103d9  PowerCC26X2_updateSubSecInc                                        
00016b61  PowerCC26X2_writeCtrim                                             
00016b85  PowerCC26X2_writeCtrimFract                                        
00016ba9  PowerCC26X2_writeCtrimFractEn                                      
00016bcd  PowerCC26X2_writeRtrim                                             
00017ad1  PowerCC26XX_calibrate                                              
00016689  PowerCC26XX_isStableXOSC_HF                                        
00016039  PowerCC26XX_schedulerDisable                                       
0001713d  PowerCC26XX_schedulerRestore                                       
0000cc09  PowerCC26XX_standbyPolicy                                          
2000232c  PowerCC26XX_swiKey                                                 
00013641  PowerCC26XX_switchXOSC_HF                                          
20002330  PowerCC26XX_taskKey                                                
0001870d  Power_getConstraintMask                                            
00018391  Power_getDependencyCount                                           
000176b1  Power_getTransitionLatency                                         
00017ae9  Power_idleFunc                                                     
0000963d  Power_init                                                         
00016bf1  Power_registerNotify                                               
00015481  Power_releaseConstraint                                            
0000ccbd  Power_releaseDependency                                            
00015b79  Power_setConstraint                                                
0000d03d  Power_setDependency                                                
00007709  Power_sleep                                                        
0001715d  Power_unregisterNotify                                             
2000010c  RAM_MAC_BASE_ADDR                                                  
000027bc  RFCC26XX_hwAttrs                                                   
200030e8  RFCC26XX_schedulerPolicy                                           
00018719  RF_Params_init                                                     
00018501  RF_RatConfigCompare_init                                           
00018a1b  RF_RatConfigOutput_init                                            
00017b01  RF_ScheduleCmdParams_init                                          
00013b25  RF_TxPowerTable_findValue                                          
00017b19  RF_cancelCmd                                                       
00008871  RF_close                                                           
2000214c  RF_cmdFsRx                                                         
20002164  RF_cmdFsTx                                                         
00002618  RF_cmdFs_2gfsk50kbps154g                                           
20001f3c  RF_cmdIEEECsma                                                     
20001b88  RF_cmdIEEERx                                                       
2000217c  RF_cmdIEEETx                                                       
20003028  RF_cmdNop                                                          
20003038  RF_cmdNopFg                                                        
200020a4  RF_cmdPropCs                                                       
200020c0  RF_cmdPropCsSlotted                                                
000025c8  RF_cmdPropCs_2gfsk50kbps154g                                       
20001d60  RF_cmdPropRadioDivSetup                                            
000024b0  RF_cmdPropRadioDivSetup_2gfsk50kbps154g                            
20001d90  RF_cmdPropRxAdv                                                    
0000242c  RF_cmdPropRxAdv_2gfsk50kbps154g                                    
20001f5c  RF_cmdPropTxAdv                                                    
00002568  RF_cmdPropTxAdv_2gfsk50kbps154g                                    
20001f7c  RF_cmdRadioSetup                                                   
200021ec  RF_cmdRxAckCmd                                                     
0000b3d9  RF_control                                                         
00018b33  RF_defaultExecutionPolicy                                          
0000df35  RF_defaultSubmitPolicy                                             
00017eed  RF_flushCmd                                                        
000180c3  RF_getCmdOp                                                        
00012b9d  RF_getCurrentTime                                                  
0000f241  RF_getInfo                                                         
0001719d  RF_getRssi                                                         
00010a15  RF_getTxPower                                                      
200030c4  RF_handle                                                          
00003fc9  RF_open                                                            
20001f9c  RF_params                                                          
0000d45d  RF_pendCmd                                                         
000154b5  RF_powerConstraintRelease                                          
00017705  RF_powerConstraintSet                                              
20003048  RF_prop_2gfsk50kbps154g                                            
00017dc5  RF_ratCompare                                                      
0000fc55  RF_ratDisableChannel                                               
0000dc25  RF_requestAccess                                                   
00018a27  RF_runDirectCmd                                                    
00018a2d  RF_runImmediateCmd                                                 
000055e5  RF_scheduleCmd                                                     
000171fd  RF_setTxPower                                                      
0000f2c5  RF_yield                                                           
00014e85  Random_getNumber                                                   
00011025  Random_seedAutomatic                                               
000183a1  RingBuf_construct                                                  
0001773d  RingBuf_flush                                                      
00015ed5  RingBuf_getConsume                                                 
00018b37  RingBuf_getCount                                                   
00016f6f  RingBuf_getPointer                                                 
000137f1  RingBuf_put                                                        
00014ebd  RingBuf_putAdvance                                                 
00015f03  RingBuf_putPointer                                                 
00018977  SemaphoreP_Params_init                                             
00015bd9  SemaphoreP_construct                                               
0001721d  SemaphoreP_constructBinary                                         
00016ca5  SemaphoreP_createBinary                                            
00018725  SemaphoreP_delete                                                  
00018b3b  SemaphoreP_destruct                                                
00018903  SemaphoreP_pend                                                    
00018b3f  SemaphoreP_post                                                    
000180d5  StructRingBuf_construct                                            
000132c1  StructRingBuf_get                                                  
0001850f  StructRingBuf_isFull                                               
00012949  StructRingBuf_put                                                  
000183b1  SwiP_Params_init                                                   
0001551d  SwiP_construct                                                     
00018b43  SwiP_destruct                                                      
00017f01  SwiP_disable                                                       
00018731  SwiP_getTrigger                                                    
00018b47  SwiP_or                                                            
00018b4b  SwiP_restore                                                       
0001851d  SwiP_setPriority                                                   
00017ddb  SystemP_snprintf                                                   
00018b4f  SystemP_vsnprintf                                                  
00017df1  TIMAC_ROM_Init                                                     
0001812f  TI_memcpy_small                                                    
000185c5  TI_memset_small                                                    
00017f15  TRNG_close                                                         
0000ec65  TRNG_construct                                                     
00002688  TRNG_defaultParams                                                 
00018b53  TRNG_generateEntropy                                               
000163ff  TRNG_generateKey                                                   
00012739  TRNG_init                                                          
000179f1  UART2Support_disableRx                                             
0001873d  UART2Support_disableTx                                             
0000abc1  UART2Support_dmaStartRx                                            
0000c7bd  UART2Support_dmaStartTx                                            
00011529  UART2Support_dmaStopRx                                             
0000f861  UART2Support_dmaStopTx                                             
000160e9  UART2Support_enableInts                                            
00018749  UART2Support_enableRx                                              
00018755  UART2Support_enableTx                                              
00016429  UART2Support_powerRelConstraint                                    
000169cb  UART2Support_powerSetConstraint                                    
00015551  UART2Support_sendData                                              
000183c1  UART2Support_txDone                                                
00018761  UART2_Params_init                                                  
0000dfcd  UART2_close                                                        
00002844  UART2_config                                                       
000026e7  UART2_count                                                        
00002500  UART2_defaultParams                                                
00006fbd  UART2_open                                                         
00016f91  UART2_read                                                         
0001299f  UART2_readCancel                                                   
00013689  UART2_readFull                                                     
000057cd  UART2_readTimeout                                                  
00015585  UART2_rxDisable                                                    
00014ef5  UART2_rxEnable                                                     
0001852b  UART2_write                                                        
0000de01  UART2_writeCancel                                                  
00017577  UART2_writeTimeout                                                 
00007429  UART2_writeTimeoutBlocking                                         
00009521  UART2_writeTimeoutNonblocking                                      
00014f2d  UDMACC26XX_close                                                   
0000284c  UDMACC26XX_config                                                  
0001890d  UDMACC26XX_hwiIntFxn                                               
000119f1  UDMACC26XX_open                                                    
000129f5  UtilTimer_construct                                                
00018b57  UtilTimer_isActive                                                 
0001897f  UtilTimer_setTimeout                                               
00018b5b  UtilTimer_start                                                    
00018b5f  UtilTimer_stop                                                     
00018987  Util_breakUint32                                                   
00018a33  Util_buildUint16                                                   
00018539  Util_buildUint32                                                   
00017b61  Util_clearEvent                                                    
00018917  Util_copyExtAddr                                                   
00018b63  Util_hiUint16                                                      
00018b67  Util_loUint16                                                      
00017b79  Util_setEvent                                                      
20014000  __STACK_END                                                        
00000560  __STACK_SIZE                                                       
20014000  __STACK_TOP                                                        
00019010  __TI_CINIT_Base                                                    
00019048  __TI_CINIT_Limit                                                   
00019048  __TI_CINIT_Warm                                                    
00018fd4  __TI_Handler_Table_Base                                            
00018fe0  __TI_Handler_Table_Limit                                           
00014afd  __TI_auto_init_nobinit_nopinit                                     
000113ef  __TI_decompress_lzss                                               
000185d3  __TI_decompress_none                                               
ffffffff  __TI_pprof_out_hndl                                                
ffffffff  __TI_prof_data_size                                                
ffffffff  __TI_prof_data_start                                               
00000000  __TI_static_base__                                                 
00018411  __TI_zero_init                                                     
000017a0  __aeabi_ctype_table_                                               
000017a0  __aeabi_ctype_table_C                                              
2000310c  __aeabi_errno                                                      
00018991  __aeabi_errno_addr                                                 
0000fadf  __aeabi_ldiv0                                                      
0001804d  __aeabi_memclr                                                     
0001804d  __aeabi_memclr4                                                    
0001804d  __aeabi_memclr8                                                    
00018ba5  __aeabi_memcpy                                                     
00018ba5  __aeabi_memcpy4                                                    
00018ba5  __aeabi_memcpy8                                                    
00018041  __aeabi_memset                                                     
00018041  __aeabi_memset4                                                    
00018041  __aeabi_memset8                                                    
00018055  __aeabi_uldivmod                                                   
ffffffff  __binit__                                                          
00018c20  __c_args__                                                         
00057fa8  __ccfg                                                             
UNDEFED   __mpu_init                                                         
20013aa0  __stack                                                            
ffffffff  __start___llvm_prf_cnts                                            
ffffffff  __stop___llvm_prf_cnts                                             
0000d3ad  __udivmoddi4                                                       
00017f3d  _args_main                                                         
00015961  _c_int00                                                           
20003058  _hposcCoeffs                                                       
20003110  _lock                                                              
00010e73  _nop                                                               
000155b9  _pthread_cleanupFxn                                                
00010095  _pthread_removeThreadKeys                                          
0001876d  _register_lock                                                     
00018779  _register_unlock                                                   
00018b6b  _system_post_cinit                                                 
00018b6f  _system_pre_init                                                   
20003114  _unlock                                                            
000024d8  activityObject                                                     
00002791  aesccmCC26XXHWAttrs                                                
20002194  aesccmCC26XXObjects                                                
20003118  appEvents                                                          
20002bf4  appSubMenu                                                         
00011091  appTaskFxn                                                         
200023b1  appTaskId                                                          
20002334  appThread                                                          
00018a39  assertHandler                                                      
00014221  atoi                                                               
20003168  bInSwi                                                             
ffffffff  binit                                                              
200022b0  coexMetricsStruct                                                  
200022f0  coexOverrideUseCases                                               
20002338  collectorStatusLine                                                
20002d38  commissionSubMenu                                                  
20002d78  configureSubMenu                                                   
00013bf1  convertTxOptions                                                   
00017a0b  copyApiMacAddrToMacAddr                                            
00017759  crc_update                                                         
2000233c  csfCuiHndl                                                         
20002db8  csfMainMenu                                                        
2000316a  csmPhy                                                             
20002e70  cuiMultiMenu                                                       
20001910  cuiMultiMenuData                                                   
2000316b  customMinTxOffEnabled                                              
200000d8  dcBucket                                                           
20002340  dcCritical                                                         
2000316c  dcEnabled                                                          
20002344  dcLimited                                                          
20002348  dcPtr                                                              
2000234c  dcRegulated                                                        
200023b2  dcStatus                                                           
20002350  dcTimeUsed                                                         
20002354  deviceStatusLine                                                   
20000fb8  enhancedAckBuf                                                     
2000274c  fhObject                                                           
0000286c  fhSupFrameTypes                                                    
200023b3  gAction                                                            
200013e0  gpioCallbackFunctions                                              
20002660  gpioPinConfigs                                                     
2000145c  gpioUserArgs                                                       
20013aa0  heapEnd                                                            
2000317b  heapStart                                                          
20002fd0  heapmgrMemFreeError                                                
20002fcc  heapmgrMemFreeTotal                                                
20002f60  ieeeCoexEnabled                                                    
20002f64  lastPostCmd                                                        
20002f58  lastRatChanA                                                       
20002f59  lastRatChanB                                                       
200023b4  lastRxPriority                                                     
200023b5  lastTxPriority                                                     
20002200  macAckDbg                                                          
200023b6  macAckTxActive                                                     
20002f30  macActionSet                                                       
2000311c  macAddrSize                                                        
10036ba1  macAllocTxBuffer                                                   
10037699  macApiAssociateReq                                                 
10036399  macApiAssociateRsp                                                 
10039e0d  macApiBadState                                                     
0000d0ed  macApiBeaconStartReq                                               
10036ef5  macApiDataReq                                                      
10039955  macApiDisassociateReq                                              
100360fd  macApiOrphanRsp                                                    
10039b81  macApiPending                                                      
10037ab9  macApiPollReq                                                      
10035eb1  macApiPurgeReq                                                     
00012a4b  macApiPwrOnReq                                                     
1003a2ad  macApiScanReq                                                      
0000b80d  macApiStartReq                                                     
10034bcd  macApiSyncReq                                                      
10039e25  macApiUnsupported                                                  
10039a99  macApiWSAsyncReq                                                   
10037c99  macAssocDataReq                                                    
10037b25  macAssocDataReqComplete                                            
1003792d  macAssocDataRxInd                                                  
10037ced  macAssocFailed                                                     
10037db5  macAssocFrameResponseTimeout                                       
10037e85  macAssocRxDisassoc                                                 
10037d79  macAssociateCnf                                                    
00001f0e  macAssociatingSt                                                   
00002874  macAuthTagLen                                                      
0000dd65  macAutoPendAddSrcMatchTableEntry                                   
10036fc5  macAutoPendMaintainSrcMatchTable                                   
0000d19d  macAutoPoll                                                        
10039e69  macBcTimerHandler                                                  
20001fbc  macBeacon                                                          
10034a25  macBeaconBattLifeCallback                                          
100355dd  macBeaconCheckSched                                                
10034715  macBeaconCheckStartTime                                            
0000cd71  macBeaconCheckTxTime                                               
10034921  macBeaconClearIndirect                                             
20001c80  macBeaconCoord                                                     
200022f8  macBeaconCoordAction1                                              
10034a01  macBeaconCoordReset                                                
20001d2c  macBeaconDevice                                                    
20002250  macBeaconDeviceAction                                              
10035575  macBeaconInit                                                      
20002f78  macBeaconMargin                                                    
20002ea1  macBeaconPayload                                                   
1003495d  macBeaconPeriodCallback                                            
100346a1  macBeaconPrepareCallback                                           
10035535  macBeaconRequeue                                                   
100355a9  macBeaconReset                                                     
100348e1  macBeaconSchedRequested                                            
100349d5  macBeaconSetPrepareTime                                            
10035369  macBeaconSetSched                                                  
100347ed  macBeaconSetupBroadcast                                            
10035421  macBeaconSetupCap                                                  
10034545  macBeaconStartContinue                                             
10035229  macBeaconStartFrameResponseTimer                                   
10035289  macBeaconStopTrack                                                 
10035065  macBeaconSyncLoss                                                  
10034781  macBeaconTxCallback                                                
0000dcc5  macBlacklistChecking                                               
10035355  macBroadcastPendCallback                                           
10037549  macBuildAssociateReq                                               
1003560d  macBuildAssociateRsp                                               
1003576d  macBuildBeacon                                                     
100394f1  macBuildBeaconNotifyInd                                            
10038c1d  macBuildCommonReq                                                  
0000a5f9  macBuildDataFrame                                                  
10038f61  macBuildDisassociateReq                                            
100388f1  macBuildHeader                                                     
0000b8dd  macBuildHeaderIes                                                  
100380d9  macBuildPayloadCoexistIe                                           
10037ee9  macBuildPayloadIes                                                 
10035bb5  macBuildPendAddr                                                   
10035d4d  macBuildRealign                                                    
10039855  macBuildWSAsyncMsg                                                 
100392e1  macBuildWSAsyncReq                                                 
0001224d  macCanSleep                                                        
000027d4  macCbackEventTbl                                                   
100385f1  macCbackForEvent                                                   
0000e3ed  macCcmDecrypt                                                      
0000e75d  macCcmEncrypt                                                      
0000e065  macCcmStarInverseTransform                                         
0000b9ad  macCcmStarTransform                                                
20003068  macCfg                                                             
10037361  macCheckIndPacket                                                  
100350ed  macCheckPendAddr                                                   
00017a25  macCheckPhyMode                                                    
00014b73  macCheckPhyRate                                                    
100374e1  macCheckSched                                                      
00002767  macCmdBufSize                                                      
000023f4  macCmdIncludeFHIe                                                  
0000281a  macCmdLen                                                          
100393ed  macCommStatusInd                                                   
10039c95  macConflictSyncLossInd                                             
20001e80  macCoord                                                           
20002300  macCoordAction1                                                    
200020dc  macCoordAction2                                                    
20002260  macCoordAction3                                                    
10039bc1  macCoordAddrCmp                                                    
10039a41  macCoordDestAddrCmp                                                
10035c85  macCoordReset                                                      
00002374  macCryptoDriverTable                                               
20002358  macCryptoDrvTblPtr                                                 
200030d0  macCsmaRtcTimerId                                                  
00017f51  macCsmaTimerExpiry                                                 
20002270  macData                                                            
20003120  macDataBeaconRequeue                                               
20003124  macDataCheckSched                                                  
20003128  macDataCheckTxTime                                                 
2000312c  macDataRequeueIndirect                                             
10037279  macDataReset                                                       
20003130  macDataRxBeaconCritical                                            
100373b9  macDataRxInd                                                       
10037455  macDataRxMemAlloc                                                  
10037515  macDataRxMemFree                                                   
100374c1  macDataSend                                                        
20003134  macDataSetSched                                                    
20003138  macDataTxBeaconComplete                                            
0000c931  macDataTxComplete                                                  
20002280  macDataTxDelay                                                     
10037529  macDataTxDelayCallback                                             
1003712d  macDataTxEnqueue                                                   
2000313c  macDataTxIndirect                                                  
100368cd  macDataTxSend                                                      
100374fd  macDataTxTimeAvailable                                             
10039d61  macDefaultAction                                                   
10039ae9  macDestAddrCmp                                                     
10039b35  macDestSAddrCmp                                                    
20001eac  macDevice                                                          
20001cf4  macDeviceAction1                                                   
20002214  macDeviceAction2                                                   
00015c99  macDeviceDescriptorLookup                                          
100377a1  macDeviceReset                                                     
100397c9  macDisassocComplete                                                
00012bf1  macDutyCycleByteToUSec                                             
00016141  macDutyCycleCheck                                                  
0000986d  macDutyCycleInit                                                   
000155ed  macDutyCycleUpdateTransmission                                     
0000b21d  macEdScanISR                                                       
1003871d  macExecute                                                         
10037479  macFrameDuration                                                   
1003749d  macFrameDurationIeee                                               
100372f5  macFrameDurationSubG                                               
20002290  macFrmFilter                                                       
20002f5b  macFsCmdActive                                                     
10039eb9  macGetCSMPhy                                                       
10039c35  macGetCoordAddress                                                 
1003bb81  macGetEUI                                                          
1003ba75  macGetEUIIndex                                                     
10039d81  macGetMyAddrMode                                                   
0000d509  macGetRFCmdDuration                                                
0001725d  macGetRadioState                                                   
00012de1  macGetRadioTxPowerReg                                              
00015cc9  macHandleTxAck                                                     
1003a29d  macIEEEGetPhyDesc                                                  
00002748  macIEEEPhyTable                                                    
00001f80  macIdleSt                                                          
1003842b  macIeCoexistIePresent                                              
100384e5  macIeFreeList                                                      
00006cad  macIncomingFrameSecurity                                           
000067e5  macIncomingFrameSecurityMaterialRetrieval                          
000136d1  macIncomingKeyUsagePolicyChecking                                  
100352cd  macIncomingNonSlottedTx                                            
0000e0fd  macIncomingSecurityLevelChecking                                   
100358c5  macIndirectExpire                                                  
100361e5  macIndirectMark                                                    
10036171  macIndirectRequeueFrame                                            
10035e09  macIndirectSend                                                    
10036085  macIndirectTxFrame                                                 
10039e7d  macIsCsmOperational                                                
0000f349  macKeyDescriptorLookup                                             
000028cc  macKeySourceLen                                                    
00018547  macLowLevelBufferInit                                              
00015621  macLowLevelDiags                                                   
000110fd  macLowLevelInit                                                    
00018555  macLowLevelReset                                                   
00018563  macLowLevelResume                                                  
0001330d  macLowLevelYield                                                   
20002544  macMRFSKGenPhyTable                                                
1003a115  macMRFSKGetPhyDesc                                                 
00002324  macMRFSKStdPhyTable                                                
200022bc  macMain                                                            
10038899  macMainReserve                                                     
10038791  macMainReset                                                       
100388e1  macMainSetTaskId                                                   
00012d3f  macMcuBitReverse                                                   
00011169  macMcuInit                                                         
000180f9  macMcuLongDiv                                                      
00017775  macMcuOverflowCapture                                              
0000fcd1  macMcuOverflowSetCompare                                           
0000f3cd  macMcuOverflowSetPeriod                                            
00018921  macMcuRandomByte                                                   
0001727d  macMcuTimerCapture                                                 
200023b7  macMgmt                                                            
20001dc0  macMgmtAction1                                                     
20002228  macMgmtAction2                                                     
0000bce5  macMgmtReset                                                       
100383c5  macMlmeSubIePresent                                                
10039ec1  macNoAction                                                        
00017791  macNopBackoffTimerExpiry                                           
0000a3fd  macOutgoingFrameKeyDescRetrieval                                   
0000b591  macOutgoingFrameSecurity                                           
10034999  macOutgoingNonSlottedTx                                            
10037ed5  macPanConflictComplete                                             
200023b8  macPanCoordinator                                                  
1003818d  macParseHeaderIes                                                  
1003827d  macParsePayloadIes                                                 
100364a9  macPendAddrLen                                                     
200023b9  macPhyChannel                                                      
2000235c  macPhyTxPower                                                      
20001358  macPib                                                             
00018b77  macPibCheckByPatch                                                 
00001e00  macPibDefaults                                                     
0001729d  macPibIndex                                                        
1003a239  macPibReset                                                        
00001a9b  macPibTbl                                                          
10037e3d  macPollCnf                                                         
10037b91  macPollDataReqComplete                                             
100379b1  macPollDataRxInd                                                   
10037bed  macPollFrameResponseTimeout                                        
10037e61  macPollRxAssocRsp                                                  
10037de9  macPollRxDisassoc                                                  
00001ff2  macPollingSt                                                       
20002360  macPrevPeriodRatCount                                              
200023ba  macPwr                                                             
00018791  macPwrReset                                                        
0000f025  macPwrVote                                                         
200030cb  macRadioAckFrame                                                   
200030c8  macRadioAckIeeeFrame                                               
00018b7b  macRadioComputeLQI                                                 
00003731  macRadioCsmaTxCb                                                   
000172bd  macRadioEnergyDetectStop                                           
0000d5b5  macRadioFHEncryptFrame                                             
000177ad  macRadioInit                                                       
00008009  macRadioInitIeee                                                   
000044ed  macRadioInitSubG                                                   
000079b1  macRadioLbtTxCb                                                    
00015cf9  macRadioLimitTxPower                                               
0001500d  macRadioNeedAdjustPower                                            
00010af5  macRadioPowerDown                                                  
0001473d  macRadioPowerUp                                                    
00015655  macRadioPowerUpWait                                                
00018b7f  macRadioRandomByte                                                 
00012e31  macRadioSendEnhAck                                                 
0000e7ed  macRadioSendImmAck                                                 
000122a9  macRadioSetChannel                                                 
000127e9  macRadioSetChannelRx                                               
00015045  macRadioSetIEEEAddr                                                
00013c35  macRadioSetPanCoordinator                                          
00016701  macRadioSetPanID                                                   
00013837  macRadioSetRE                                                      
00016729  macRadioSetShortAddr                                               
00017e1d  macRadioSetTxPower                                                 
0000f0ad  macRadioStartScan                                                  
00014321  macRadioStopScan                                                   
00016751  macRadioSwInit                                                     
000177c9  macRadioTxBOBoundary                                               
00012305  macRadioTxBackoffBoundary                                          
000152ab  macRadioTxCancelTxAck                                              
0000e87d  macRadioTxEnhAckCb                                                 
000567d9  macRadioTxGo                                                       
00018a3f  macRadioTxGoGreenPower                                             
00011a55  macRadioTxGoLbt                                                    
00018a45  macRadioTxGoSlotted                                                
00014779  macRadioTxGoSlottedCsma                                            
00013359  macRadioTxHandleAck                                                
000177e5  macRadioTxPrepCsmaSlotted                                          
00012841  macRadioTxPrepCsmaSlottedIeee                                      
0000ae85  macRadioTxPrepCsmaSlottedSubG                                      
00017801  macRadioTxPrepCsmaUnslotted                                        
00015689  macRadioTxPrepCsmaUnslottedIeee                                    
000133a5  macRadioTxPrepCsmaUnslottedSubG                                    
0001507d  macRadioTxPrepGreenPower                                           
000111d5  macRadioTxPrepLbt                                                  
00011591  macRadioTxPrepSlotted                                              
00004bc9  macRadioTxRequestTxAck                                             
0000e481  macRadioUpdateChannel                                              
0000e90d  macRadioUpdateChannelRx                                            
00012899  macRadioUpdateTxPower                                              
00011e95  macRadioWakeupCb                                                   
20003172  macRadioYielded                                                    
0001616d  macRatCb_A                                                         
000156bd  macRatCb_B                                                         
00016199  macRatDisableChannelB                                              
00013c79  macRatDisableChannels                                              
0001879d  macRegisterSfdDetect                                               
00010185  macRequestBackoff                                                  
00012361  macRequestSFDTimeout                                               
200020f8  macReset                                                           
000021b4  macRfDriverTable                                                   
20002364  macRfDrvTblPtr                                                     
0001781d  macRxAckTxDoneCallback                                             
200023bb  macRxActive                                                        
10037871  macRxAssocRsp                                                      
100362b1  macRxAssociateReq                                                  
00018b83  macRxBackoffHandler                                                
00017f65  macRxBackoffTimerExpiry                                            
100395bd  macRxBeacon                                                        
00006e35  macRxBeaconCritical                                                
10036419  macRxBeaconReq                                                     
00003425  macRxCb                                                            
100373fd  macRxCheckMACPendingCallback                                       
1003742d  macRxCheckPendingCallback                                          
20002f5a  macRxCmdActive                                                     
10036cd9  macRxCompleteCallback                                              
10037a35  macRxCoordRealign                                                  
200019ea  macRxDataEntryOffset                                               
20002308  macRxDataEntryQueue                                                
10035f55  macRxDataReq                                                       
00013719  macRxDisable                                                       
100398d9  macRxDisassoc                                                      
00016779  macRxEnable                                                        
200023bc  macRxEnableFlags                                                   
200023bd  macRxFilter                                                        
00056001  macRxFrameIsr                                                      
00010b65  macRxHaltCleanup                                                   
000156f1  macRxHardDisable                                                   
0000ce25  macRxInit                                                          
00013cbd  macRxNokIsr                                                        
000161c5  macRxOff                                                           
00010bd5  macRxOffRequest                                                    
000115f9  macRxOn                                                            
000167a1  macRxOnOffInit                                                     
00017f79  macRxOnRequest                                                     
10036355  macRxOrphan                                                        
200023be  macRxOutgoingAckFlag                                               
200022a0  macRxOutputIeee                                                    
200022c8  macRxOutputSubG                                                    
100364c5  macRxPanConflict                                                   
20002f5c  macRxPreempted                                                     
000159c7  macRxRadioPowerUpInit                                              
000172fd  macRxSFDTimerExpiry                                                
000187a9  macRxSequenceNum                                                   
000161f1  macRxSoftDisable                                                   
0001621d  macRxSoftEnable                                                    
20002368  macRxSymbol                                                        
20001678  macScan                                                            
200021ac  macScanAction                                                      
1003a931  macScanCnfInit                                                     
1003a839  macScanComplete                                                    
1003a96d  macScanFailedInProgress                                            
00008bf5  macScanNextChan                                                    
1003a599  macScanRxBeacon                                                    
0000c0e1  macScanRxCoordRealign                                              
1003a8b9  macScanStartTimer                                                  
00002064  macScanningSt                                                      
10039e91  macSecCpy                                                          
20001bc8  macSecurityPib                                                     
1003b199  macSecurityPibIndex                                                
1003ac6d  macSecurityPibReset                                                
00002220  macSecurityPibTbl                                                  
20002114  macSemHandle                                                       
10038501  macSendDataMsg                                                     
000133f1  macSendFsCmd                                                       
100386a1  macSendMsg                                                         
00002630  macSendMsgBufSize                                                  
000027e0  macSendMsgDataSize                                                 
00017839  macSendReceiveCmd                                                  
00005d6d  macSendReceiveCmdIeee                                              
00004df5  macSendReceiveCmdSubG                                              
0001343d  macSetDefaultsByPatch                                              
10039095  macSetDefaultsByPhyID                                              
10039bfd  macSetDefaultsByRE                                                 
10038861  macSetEvent                                                        
10038845  macSetEvent16                                                      
1003753d  macSetSched                                                        
00011661  macSetTxPowerVal                                                   
000147b5  macSetUserConfig                                                   
00010535  macSetupFsCmd                                                      
0000aacd  macSetupRATChanCompare                                             
0000f451  macSetupReceiveCmd                                                 
20002f68  macSfdDetectCback                                                  
0000e99d  macSleep                                                           
20003173  macSleepState                                                      
000150b5  macSleepWakeUp                                                     
200023bf  macSpecUsecsPerSymbol                                              
20001df0  macSrcExtAddrList                                                  
20002b9b  macSrcMatchDefaultPendOn                                           
20002b9a  macSrcMatchIsAckAllPending                                         
20003174  macSrcMatchIsEnabled                                               
200023c0  macSrcResIndex                                                     
20002130  macSrcShortAddrList                                                
10034895  macStartBeaconPrepareCallback                                      
10035ad5  macStartBegin                                                      
10035311  macStartBroadcastPendTimer                                         
100363d9  macStartComplete                                                   
10036309  macStartContinue                                                   
10037d35  macStartFrameResponseTimer                                         
10037e15  macStartResponseTimer                                              
100359d5  macStartSetParams                                                  
000020d6  macStartingSt                                                      
100388b1  macStateIdle                                                       
1003887d  macStateIdleOrPolling                                              
100388c9  macStateScanning                                                   
20002ff0  macStateTbl                                                        
2000223c  macStatistics                                                      
0000e195  macStopCmd                                                         
00017f8d  macSymbolBCTimerPowerUp                                            
00017fa1  macSymbolSetupPwrMgmt                                              
00015759  macSymbolTimerBCWakeUp                                             
00017855  macSymbolTimerCompareIsr                                           
000150ed  macSymbolTimerCount                                                
000123bd  macSymbolTimerEventHandler                                         
000187b5  macSymbolTimerGetTrigger                                           
00015d59  macSymbolTimerICallTimerCback                                      
200023c1  macSymbolTimerImpending                                            
0000d661  macSymbolTimerInit                                                 
00010c45  macSymbolTimerPeriodIsr                                            
00016d35  macSymbolTimerPowerDown                                            
00017871  macSymbolTimerRealign                                              
00013d01  macSymbolTimerRealignIeee                                          
00013d45  macSymbolTimerRealignSubG                                          
00018b8b  macSymbolTimerReset                                                
00016d59  macSymbolTimerRestore                                              
2000236c  macSymbolTimerRollover                                             
00011ef5  macSymbolTimerRolloverCallback                                     
000147f1  macSymbolTimerSetCount                                             
00016d7d  macSymbolTimerSetRollover                                          
0001482d  macSymbolTimerSetTrigger                                           
0001731d  macSymbolTimerSetTriggerRollover                                   
20002370  macSymbolTimerTrigger                                              
0000c4bd  macSymbolTimerTriggerCallback                                      
0000ba7d  macSymbolTimerUpdateWakeup                                         
10034e8d  macSyncTimeoutCallback                                             
200023c2  macTaskId                                                          
0000f135  macTaskInit                                                        
20003148  macTasksEvents                                                     
20002374  macThread                                                          
000167c9  macTimer                                                           
20002378  macTimerActive                                                     
00011ab9  macTimerAddTimer                                                   
0001578d  macTimerAligned                                                    
00011f55  macTimerCancel                                                     
00016249  macTimerCheckUnAlignedQ                                            
000116c9  macTimerGetNextTimer                                               
00018b8f  macTimerGetTime                                                    
00015125  macTimerInit                                                       
2000314c  macTimerNewRollover                                                
000101fd  macTimerRealign                                                    
00014361  macTimerRecalcUnaligned                                            
00017e33  macTimerRemoveTimer                                                
20003150  macTimerRollover                                                   
000023b4  macTimerRolloverValue                                              
000105a9  macTimerSetRollover                                                
000157c1  macTimerStart                                                      
00017bc1  macTimerSyncRollover                                               
00013489  macTimerUpdActive                                                  
0000e515  macTimerUpdateSymbolTimer                                          
00011b1d  macTrackPeriodCallback                                             
0000f4d5  macTrackStartCallback                                              
0000d8f9  macTrackTimeoutCallback                                            
00016275  macTxAbortIsr                                                      
00018b93  macTxAckIsr                                                        
0001515d  macTxAckNotReceivedCallback                                        
00012c45  macTxAckReceivedCallback                                           
200023c3  macTxActive                                                        
00018a4b  macTxBackoffHandler                                                
00017fb5  macTxBackoffTimerExpiry                                            
200023c4  macTxBe                                                            
10034421  macTxBeaconCompleteCallback                                        
0000a7ed  macTxChannelBusyCallback                                           
20003175  macTxCmdActive                                                     
100364f9  macTxCompleteCallback                                              
20001b82  macTxCsmaBackoffDelay                                              
10039e3d  macTxCsmaDelay                                                     
000143a1  macTxDecrypt                                                       
0000eabd  macTxDoneCallback                                                  
00005205  macTxFrame                                                         
00002775  macTxFrameFailed                                                   
000143e1  macTxFrameIsr                                                      
00015195  macTxFrameRetransmit                                               
00002783  macTxFrameSuccess                                                  
00011241  macTxGetDefaultMinTxOffTime                                        
200023c5  macTxGpInterframeDelay                                             
00015d89  macTxInit                                                          
0000bdb1  macTxRequestCsmaDelay                                              
0000c1a9  macTxRequestCsmaRtcDelay                                           
20003176  macTxSlottedDelay                                                  
20003177  macTxSlottedDelayFactor                                            
0000d24d  macTxStartQueuedFrame                                              
2000237c  macTxTimestamp                                                     
00014869  macTxTimestampCallback                                             
200023c6  macTxType                                                          
00013d89  macTxUpdateIE                                                      
200023c7  macUnitBackoffPeriod                                               
10039ea5  macUpdateCsmPhyParam                                               
10038349  macUpdateHeaderIEPtr                                               
1003b9f1  macUpdatePanId                                                     
10038489  macUpdatePayloadIEPtr                                              
20003004  macUser0Cfg                                                        
10039da1  macWSAsyncCnf                                                      
00017bd9  macWrapper8ByteUnused                                              
00003071  macWrapperAddDevice                                                
0000611d  macWrapperAddKeyInitFCtr                                           
00008141  macWrapperDeleteAllDevices                                         
00006b1d  macWrapperDeleteDevice                                             
000062ed  macWrapperDeleteKeyAndAssociatedDevices                            
1003c6e9  macWrapperGetDefaultSourceKey                                      
100387f9  mac_msg_deallocate                                                 
0000f559  main                                                               
00018b97  malloc                                                             
20000a38  menuBuff                                                           
20003154  minTxOffTime                                                       
000026b0  msacbackSizeTable                                                  
20002380  numJoinDevStatusLine                                               
20002f5d  numRfCmd                                                           
20002f5e  numRxCmd                                                           
20002f5f  numRxPostCmd                                                       
20003179  numTx                                                              
200023c8  nvsCC26XXObjects                                                   
00018a51  osalHeapAllocFxn                                                   
00018a57  osalHeapFreeFxn                                                    
0001892b  osalHeapGetStatsFxn                                                
000187c1  osalHeapInitFxn                                                    
00018b9f  osalHeapIsBlockingFxn                                              
20002384  pClockHandleEDScan                                                 
20003020  pMacCbackCheckPending                                              
2000301c  pMacCbackQueryRetransmit                                           
2000315c  pMacDataTx                                                         
20003160  pMacEnhancedAck                                                    
20002388  pMacRadioConfig                                                    
2000238c  pMaxPower                                                          
20002f08  pOverrides_2gfsk50kbps154g                                         
20002390  pRfMode                                                            
20002394  pRfPowerTable                                                      
20002b41  permitJoining                                                      
00017c21  pthread_attr_init                                                  
000187d9  pthread_attr_setdetachstate                                        
00017fc9  pthread_attr_setschedparam                                         
00018a5d  pthread_attr_setstacksize                                          
0000b4b5  pthread_create                                                     
00011fb5  pthread_exit                                                       
000151cd  pthread_mutex_init                                                 
00018999  pthread_mutex_lock                                                 
000157f5  pthread_mutex_unlock                                               
00017fdd  pthread_mutexattr_init                                             
000187e5  pthread_self                                                       
00016453  radioComputeED                                                     
2000317a  reqAccessAlloc                                                     
000022d0  resourceDB                                                         
000173dd  rfSelect                                                           
000053f5  rfSetConfigSubG                                                    
000162a1  rf_patch_cpe_prop                                                  
2000224e  rxCmdHandle                                                        
200023c9  rxFhRsl                                                            
200023ca  rxPromiscuousMode                                                  
20002398  rxRadioBufferPtr                                                   
200023cb  rxSeqNum                                                           
000169f1  sAddrCmp                                                           
0001810b  sAddrCpy                                                           
00016ff7  sAddrExtCmp                                                        
00018a63  sAddrExtCpy                                                        
20002b40  savedCllcState                                                     
0000d99d  scheduleNopWakeupCmd                                               
000167f1  sem_init                                                           
00018935  sem_post                                                           
00018571  sem_wait                                                           
00007afd  strtol                                                             
20002fc8  taskCnt                                                            
20000d50  taskTbl                                                            
20002918  ti_sysbios_family_arm_cc26xx_Timer_Module_state                    
00008d21  ti_sysbios_family_arm_cc26xx_Timer_construct                       
000183e1  ti_sysbios_family_arm_cc26xx_Timer_dynamicStub                     
000148e1  ti_sysbios_family_arm_cc26xx_Timer_periodicStub                    
0001647d  ti_sysbios_family_arm_cc26xx_Timer_setNextTick                     
0001491d  ti_sysbios_family_arm_cc26xx_Timer_setThreshold                    
00013761  ti_sysbios_family_arm_cc26xx_Timer_start                           
00013dcd  ti_sysbios_family_arm_m3_Hwi_Instance_finalize                     
0001061d  ti_sysbios_family_arm_m3_Hwi_Instance_init                         
200028b4  ti_sysbios_family_arm_m3_Hwi_Module_state                          
000162cd  ti_sysbios_family_arm_m3_Hwi_construct                             
00013e11  ti_sysbios_family_arm_m3_Hwi_construct2                            
00018a69  ti_sysbios_family_arm_m3_Hwi_destruct                              
00013e55  ti_sysbios_family_arm_m3_Hwi_disableInterrupt                      
00009405  ti_sysbios_family_arm_m3_Hwi_dispatch                              
00011319  ti_sysbios_family_arm_m3_Hwi_dispatchC                             
200010b4  ti_sysbios_family_arm_m3_Hwi_dispatchTable                         
00018a6f  ti_sysbios_family_arm_m3_Hwi_doSwiRestore                          
00018a75  ti_sysbios_family_arm_m3_Hwi_doTaskRestore                         
00013e99  ti_sysbios_family_arm_m3_Hwi_enableInterrupt                       
000183f1  ti_sysbios_family_arm_m3_Hwi_excHandler                            
00016869  ti_sysbios_family_arm_m3_Hwi_excHandlerAsm                         
00015829  ti_sysbios_family_arm_m3_Hwi_getStackInfo                          
0001585d  ti_sysbios_family_arm_m3_Hwi_init                                  
0000f5dd  ti_sysbios_family_arm_m3_Hwi_initNVIC                              
0001745d  ti_sysbios_family_arm_m3_Hwi_initStack                             
000128f1  ti_sysbios_family_arm_m3_Hwi_initStacks                            
000094dc  ti_sysbios_family_arm_m3_Hwi_interruptsAreDisabledButShouldNotBe   
000094e1  ti_sysbios_family_arm_m3_Hwi_pendSV                                
0000f961  ti_sysbios_family_arm_m3_Hwi_postInit                              
20000000  ti_sysbios_family_arm_m3_Hwi_ramVectors                            
00000000  ti_sysbios_family_arm_m3_Hwi_resetVectors                          
00009504  ti_sysbios_family_arm_m3_Hwi_return                                
000028d0  ti_sysbios_family_arm_m3_Hwi_swiTaskKeyAddress                     
00017595  ti_sysbios_family_arm_m3_Hwi_switchAndRunFunc                      
00018005  ti_sysbios_family_arm_m3_Hwi_switchFromBootStack                   
0001747d  ti_sysbios_gates_GateMutexPri_Instance_init                        
200030f0  ti_sysbios_gates_GateMutexPri_Module_state                         
0000f9e1  ti_sysbios_gates_GateMutexPri_enter                                
00017019  ti_sysbios_gates_GateMutexPri_insertPri                            
00011be5  ti_sysbios_gates_GateMutexPri_leave                                
200030f8  ti_sysbios_heaps_HeapCallback_Module_state                         
00018a7b  ti_sysbios_heaps_HeapCallback_alloc                                
00014959  ti_sysbios_heaps_HeapCallback_construct                            
00018a81  ti_sysbios_heaps_HeapCallback_free                                 
00018a87  ti_sysbios_heaps_HeapCallback_getStats                             
00018a8d  ti_sysbios_heaps_HeapCallback_isBlocking                           
00014995  ti_sysbios_knl_ClockSupport_init                                   
000187f1  ti_sysbios_knl_ClockSupport_setNextTick                            
200015c0  ti_sysbios_knl_ClockSupport_timerStruct                            
000178c5  ti_sysbios_knl_Clock_Instance_finalize                             
00015891  ti_sysbios_knl_Clock_Instance_init                                 
20002958  ti_sysbios_knl_Clock_Module_state                                  
000178e1  ti_sysbios_knl_Clock_construct                                     
00016a3d  ti_sysbios_knl_Clock_create                                        
0001749d  ti_sysbios_knl_Clock_delete                                        
000162f9  ti_sysbios_knl_Clock_getTicks                                      
00014421  ti_sysbios_knl_Clock_getTicksUntilInterrupt                        
00016325  ti_sysbios_knl_Clock_getTimeout                                    
0000ecf1  ti_sysbios_knl_Clock_init                                          
00017c51  ti_sysbios_knl_Clock_scheduleNextTick                              
00017e49  ti_sysbios_knl_Clock_start                                         
0000e5a9  ti_sysbios_knl_Clock_startI                                        
000187fd  ti_sysbios_knl_Clock_tick                                          
00012015  ti_sysbios_knl_Clock_walkQueueDynamic                              
0000bf49  ti_sysbios_knl_Clock_workFuncDynamic                               
0000288c  ti_sysbios_knl_Idle_funcList                                       
00011c49  ti_sysbios_knl_Idle_init                                           
200028f3  ti_sysbios_knl_Idle_initDone                                       
00018a93  ti_sysbios_knl_Idle_loop                                           
000178fd  ti_sysbios_knl_Idle_run                                            
20000838  ti_sysbios_knl_Idle_taskStack                                      
20001620  ti_sysbios_knl_Idle_taskStruct                                     
00017919  ti_sysbios_knl_Queue_put                                           
00016e79  ti_sysbios_knl_Semaphore_Instance_init                             
20003100  ti_sysbios_knl_Semaphore_Module_state                              
00017935  ti_sysbios_knl_Semaphore_construct                                 
00016e9d  ti_sysbios_knl_Semaphore_create                                    
000174bd  ti_sysbios_knl_Semaphore_delete                                    
00016ec1  ti_sysbios_knl_Semaphore_destruct                                  
0000b139  ti_sysbios_knl_Semaphore_pend                                      
00015de9  ti_sysbios_knl_Semaphore_pendTimeout                               
00012075  ti_sysbios_knl_Semaphore_post                                      
00012f21  ti_sysbios_knl_Swi_Instance_init                                   
20002930  ti_sysbios_knl_Swi_Module_state                                    
00017951  ti_sysbios_knl_Swi_construct                                       
00017c69  ti_sysbios_knl_Swi_construct2                                      
0001796d  ti_sysbios_knl_Swi_destruct                                        
00016891  ti_sysbios_knl_Swi_init                                            
00017c81  ti_sysbios_knl_Swi_or                                              
00012f71  ti_sysbios_knl_Swi_post                                            
20001e20  ti_sysbios_knl_Swi_readyQs                                         
00013edd  ti_sysbios_knl_Swi_restore                                         
00010691  ti_sysbios_knl_Swi_restoreHwi                                      
00011731  ti_sysbios_knl_Swi_run                                             
00012fc1  ti_sysbios_knl_Swi_runLoop                                         
000120d5  ti_sysbios_knl_Swi_schedule                                        
00016351  ti_sysbios_knl_Swi_setPri                                          
00018a99  ti_sysbios_knl_Swi_startup                                         
00011cad  ti_sysbios_knl_TaskSupport_buildTaskStack                          
00017c99  ti_sysbios_knl_TaskSupport_glue                                    
00015e19  ti_sysbios_knl_TaskSupport_start                                   
000168b9  ti_sysbios_knl_TaskSupport_swap                                    
000168c4  ti_sysbios_knl_TaskSupport_swapReturn                              
0000c9e9  ti_sysbios_knl_Task_Instance_finalize                              
0000da41  ti_sysbios_knl_Task_Instance_init                                  
20002df8  ti_sysbios_knl_Task_Module_state                                   
000164a7  ti_sysbios_knl_Task_allBlockedFunction                             
00017e5f  ti_sysbios_knl_Task_block                                          
000149d1  ti_sysbios_knl_Task_blockI                                         
000168e1  ti_sysbios_knl_Task_construct                                      
00014a0d  ti_sysbios_knl_Task_create                                         
2000239c  ti_sysbios_knl_Task_defaultStackHeap                               
000174dd  ti_sysbios_knl_Task_delete                                         
000174fd  ti_sysbios_knl_Task_destruct                                       
00016ee5  ti_sysbios_knl_Task_enter                                          
00014461  ti_sysbios_knl_Task_exit                                           
00016909  ti_sysbios_knl_Task_init                                           
000102ed  ti_sysbios_knl_Task_postInit                                       
00015205  ti_sysbios_knl_Task_processVitalTaskFlag                           
20001e50  ti_sysbios_knl_Task_readyQs                                        
00014a49  ti_sysbios_knl_Task_restore                                        
0001637d  ti_sysbios_knl_Task_restoreHwi                                     
000137a9  ti_sysbios_knl_Task_schedule                                       
0000d2fd  ti_sysbios_knl_Task_setPri                                         
00010d25  ti_sysbios_knl_Task_startup                                        
00017cb1  ti_sysbios_knl_Task_unblock                                        
000158c5  ti_sysbios_knl_Task_unblockI                                       
2000290c  ti_sysbios_runtime_Error_ignore                                    
0001523d  ti_sysbios_runtime_Error_print                                     
000158f9  ti_sysbios_runtime_Error_raiseX                                    
00014a85  ti_sysbios_runtime_Memory_alloc                                    
200028f4  ti_sysbios_runtime_Memory_defaultHeapInstance                      
200028f0  ti_sysbios_runtime_Startup_done                                    
000144a1  ti_sysbios_runtime_Startup_exec                                    
20002924  ti_sysbios_runtime_System_Module_state                             
0001592d  ti_sysbios_runtime_System_atexit                                   
200023a0  ti_sysbios_runtime_System_atexitHandlers                           
00004265  ti_sysbios_runtime_System_doPrint                                  
000189a1  ti_sysbios_runtime_System_exit                                     
000163d3  ti_sysbios_runtime_System_exitSpin                                 
00010d95  ti_sysbios_runtime_System_formatNum                                
00017cc9  ti_sysbios_runtime_System_printf                                   
00015e49  ti_sysbios_runtime_System_processAtExit                            
00017ce1  ti_sysbios_runtime_System_vprintf                                  
00018401  ti_sysbios_runtime_System_vsnprintf                                
200023a4  timerAlignedQ                                                      
200023a8  timerUnalignedQ                                                    
200023cc  txAckReq                                                           
200022e6  txCmdHandle                                                        
00008e4d  txComplete                                                         
000072b1  txCsmaDelay                                                        
200026dc  txPowerTable_868_pa13                                              
200023cd  txSeqn                                                             
20000be0  uart2CC26X2Objects                                                 
00002894  udmaCC26XXHWAttrs                                                  
20001fdc  udmaCC26XXObject                                                   


GLOBAL SYMBOLS: SORTED BY Symbol Address 

address   name                                                               
-------   ----                                                               
00000000  __TI_static_base__                                                 
00000000  ti_sysbios_family_arm_m3_Hwi_resetVectors                          
0000003d  ApiMac_mlmeScanReq                                                 
00000560  __STACK_SIZE                                                       
00000627  Button_count                                                       
00000628  HMAC_ROM_Flash_JT                                                  
000010df  GPIO_pinLowerBound                                                 
000013c0  FH_ROM_Flash_JT                                                    
000017a0  __aeabi_ctype_table_                                               
000017a0  __aeabi_ctype_table_C                                              
000019a1  FH_stateMatrix                                                     
00001a9b  macPibTbl                                                          
00001b93  GPIO_pinUpperBound                                                 
00001b94  LMAC_ROM_Flash_JT                                                  
00001c60  FHPIB_defaults                                                     
00001e00  macPibDefaults                                                     
00001f0e  macAssociatingSt                                                   
00001f80  macIdleSt                                                          
00001ff2  macPollingSt                                                       
00002064  macScanningSt                                                      
000020d6  macStartingSt                                                      
00002148  ICALL_OSAL_ROM_Flash_JT                                            
000021b4  macRfDriverTable                                                   
00002220  macSecurityPibTbl                                                  
000022d0  resourceDB                                                         
00002324  macMRFSKStdPhyTable                                                
00002374  macCryptoDriverTable                                               
000023b4  macTimerRolloverValue                                              
000023f4  macCmdIncludeFHIe                                                  
0000242c  RF_cmdPropRxAdv_2gfsk50kbps154g                                    
00002488  NVSCC26XX_fxnTable                                                 
000024b0  RF_cmdPropRadioDivSetup_2gfsk50kbps154g                            
000024d8  activityObject                                                     
00002500  UART2_defaultParams                                                
00002568  RF_cmdPropTxAdv_2gfsk50kbps154g                                    
000025c8  RF_cmdPropCs_2gfsk50kbps154g                                       
00002600  PWM_defaultParams                                                  
00002618  RF_cmdFs_2gfsk50kbps154g                                           
00002630  macSendMsgBufSize                                                  
00002660  Button_defaultParams                                               
00002674  PowerCC26X2_config                                                 
00002688  TRNG_defaultParams                                                 
000026b0  msacbackSizeTable                                                  
000026e5  LED_count                                                          
000026e6  NVS_count                                                          
000026e7  UART2_count                                                        
000026e8  AESCCM_defaultParams                                               
00002708  Button_config                                                      
00002718  GPIO_config                                                        
00002728  LED_config                                                         
00002748  macIEEEPhyTable                                                    
00002767  macCmdBufSize                                                      
00002775  macTxFrameFailed                                                   
00002783  macTxFrameSuccess                                                  
00002791  aesccmCC26XXHWAttrs                                                
000027b0  NVS_config                                                         
000027bc  RFCC26XX_hwAttrs                                                   
000027d4  macCbackEventTbl                                                   
000027e0  macSendMsgDataSize                                                 
0000281a  macCmdLen                                                          
0000282c  AESCCM_config                                                      
00002834  Cllc_keySource                                                     
0000283c  LED_defaultParams                                                  
00002844  UART2_config                                                       
0000284c  UDMACC26XX_config                                                  
0000286c  fhSupFrameTypes                                                    
00002874  macAuthTagLen                                                      
0000288c  ti_sysbios_knl_Idle_funcList                                       
00002894  udmaCC26XXHWAttrs                                                  
000028c0  NVS_defaultParams                                                  
000028cc  macKeySourceLen                                                    
000028d0  ti_sysbios_family_arm_m3_Hwi_swiTaskKeyAddress                     
00002cad  ApiMac_processIncoming                                             
00003071  macWrapperAddDevice                                                
00003425  macRxCb                                                            
00003731  macRadioCsmaTxCb                                                   
00003a39  CUI_processMenuUpdate                                              
00003d05  Collector_process                                                  
00003fc9  RF_open                                                            
00004265  ti_sysbios_runtime_System_doPrint                                  
000044ed  macRadioInitSubG                                                   
00004bc9  macRadioTxRequestTxAck                                             
00004df5  macSendReceiveCmdSubG                                              
00005205  macTxFrame                                                         
000053f5  rfSetConfigSubG                                                    
000055e5  RF_scheduleCmd                                                     
000057cd  UART2_readTimeout                                                  
000059af  BIOS_nullFunc                                                      
00005d6d  macSendReceiveCmdIeee                                              
0000611d  macWrapperAddKeyInitFCtr                                           
000062ed  macWrapperDeleteKeyAndAssociatedDevices                            
00006641  CUI_registerMenu                                                   
000067e5  macIncomingFrameSecurityMaterialRetrieval                          
00006989  PowerCC26X2_auxISR                                                 
00006b1d  macWrapperDeleteDevice                                             
00006cad  macIncomingFrameSecurity                                           
00006e35  macRxBeaconCritical                                                
00006fbd  UART2_open                                                         
00007139  MAC_McpsDataReq                                                    
000072b1  txCsmaDelay                                                        
00007429  UART2_writeTimeoutBlocking                                         
00007709  Power_sleep                                                        
00007861  MAC_InitFH                                                         
000079b1  macRadioLbtTxCb                                                    
00007afd  strtol                                                             
00007d91  CUI_init                                                           
00008009  macRadioInitIeee                                                   
00008141  macWrapperDeleteAllDevices                                         
000084e1  Csf_processEvents                                                  
00008611  NOROM_AESWriteToKeyStore                                           
00008871  RF_close                                                           
00008bf5  macScanNextChan                                                    
00008d21  ti_sysbios_family_arm_cc26xx_Timer_construct                       
00008e4d  txComplete                                                         
00008f79  CUI_statusLinePrintf                                               
00009405  ti_sysbios_family_arm_m3_Hwi_dispatch                              
000094dc  ti_sysbios_family_arm_m3_Hwi_interruptsAreDisabledButShouldNotBe   
000094e1  ti_sysbios_family_arm_m3_Hwi_pendSV                                
00009504  ti_sysbios_family_arm_m3_Hwi_return                                
00009521  UART2_writeTimeoutNonblocking                                      
0000963b  Board_initHook                                                     
0000963d  Power_init                                                         
0000986d  macDutyCycleInit                                                   
00009a9d  Cllc_process                                                       
00009bb1  Csf_init                                                           
00009cc1  LED_open                                                           
00009dd1  PowerCC26X2_calibrate                                              
00009fe5  NVSCC26XX_write                                                    
0000a1f5  GPIO_init                                                          
0000a3fd  macOutgoingFrameKeyDescRetrieval                                   
0000a5f9  macBuildDataFrame                                                  
0000a7ed  macTxChannelBusyCallback                                           
0000a8e5  CUI_statusLineResourceRequest                                      
0000a9d9  NOROM_SysCtrlStandby                                               
0000aacd  macSetupRATChanCompare                                             
0000abc1  UART2Support_dmaStartRx                                            
0000acb1  MAC_CbackEvent                                                     
0000ae85  macRadioTxPrepCsmaSlottedSubG                                      
0000b055  NOROM_SetupTrimDevice                                              
0000b139  ti_sysbios_knl_Semaphore_pend                                      
0000b21d  macEdScanISR                                                       
0000b2fd  Button_open                                                        
0000b3d9  RF_control                                                         
0000b4b5  pthread_create                                                     
0000b591  macOutgoingFrameSecurity                                           
0000b669  Csf_deviceUpdate                                                   
0000b80d  macApiStartReq                                                     
0000b8dd  macBuildHeaderIes                                                  
0000b9ad  macCcmStarTransform                                                
0000ba7d  macSymbolTimerUpdateWakeup                                         
0000bb4d  Cllc_restoreNetwork                                                
0000bc19  Collector_sendConfigRequest                                        
0000bce5  macMgmtReset                                                       
0000bdb1  macTxRequestCsmaDelay                                              
0000bf49  ti_sysbios_knl_Clock_workFuncDynamic                               
0000c0df  Csf_toggleResponseReceived                                         
0000c0e1  macScanRxCoordRealign                                              
0000c1a9  macTxRequestCsmaRtcDelay                                           
0000c271  FHDATA_CheckMinTxOffTime                                           
0000c4bd  macSymbolTimerTriggerCallback                                      
0000c645  Collector_init                                                     
0000c7bd  UART2Support_dmaStartTx                                            
0000c931  macDataTxComplete                                                  
0000c9e9  ti_sysbios_knl_Task_Instance_finalize                              
0000caa1  MAC_MlmeScanReq                                                    
0000cb55  NOROM_OSCHF_AttemptToSwitchToXosc                                  
0000cc09  PowerCC26XX_standbyPolicy                                          
0000ccbd  Power_releaseDependency                                            
0000cd71  macBeaconCheckTxTime                                               
0000ce25  macRxInit                                                          
0000cf8b  NOROM_RFCCpePatchReset                                             
0000cf8d  Csf_deviceSensorDataUpdate                                         
0000d03d  Power_setDependency                                                
0000d0ed  macApiBeaconStartReq                                               
0000d19d  macAutoPoll                                                        
0000d24d  macTxStartQueuedFrame                                              
0000d2fd  ti_sysbios_knl_Task_setPri                                         
0000d3ad  __udivmoddi4                                                       
0000d45d  RF_pendCmd                                                         
0000d509  macGetRFCmdDuration                                                
0000d5b5  macRadioFHEncryptFrame                                             
0000d661  macSymbolTimerInit                                                 
0000d70d  ApiMac_mlmeSetReqArray                                             
0000d8f9  macTrackTimeoutCallback                                            
0000d99d  scheduleNopWakeupCmd                                               
0000da41  ti_sysbios_knl_Task_Instance_init                                  
0000dc25  RF_requestAccess                                                   
0000dcc5  macBlacklistChecking                                               
0000dd65  macAutoPendAddSrcMatchTableEntry                                   
0000de01  UART2_writeCancel                                                  
0000df35  RF_defaultSubmitPolicy                                             
0000dfcd  UART2_close                                                        
0000e065  macCcmStarInverseTransform                                         
0000e0fd  macIncomingSecurityLevelChecking                                   
0000e195  macStopCmd                                                         
0000e2c5  MAC_SrcMatchAddEntry                                               
0000e3ed  macCcmDecrypt                                                      
0000e481  macRadioUpdateChannel                                              
0000e515  macTimerUpdateSymbolTimer                                          
0000e5a9  ti_sysbios_knl_Clock_startI                                        
0000e75d  macCcmEncrypt                                                      
0000e7ed  macRadioSendImmAck                                                 
0000e87d  macRadioTxEnhAckCb                                                 
0000e90d  macRadioUpdateChannelRx                                            
0000e99d  macSleep                                                           
0000eabd  macTxDoneCallback                                                  
0000eb4d  CUI_clientOpen                                                     
0000ebd9  GPIO_setConfig                                                     
0000ec65  TRNG_construct                                                     
0000ecf1  ti_sysbios_knl_Clock_init                                          
0000ed7d  Cllc_init                                                          
0000ee05  Csf_getDeviceItem                                                  
0000f025  macPwrVote                                                         
0000f0ad  macRadioStartScan                                                  
0000f135  macTaskInit                                                        
0000f241  RF_getInfo                                                         
0000f2c5  RF_yield                                                           
0000f349  macKeyDescriptorLookup                                             
0000f3cd  macMcuOverflowSetPeriod                                            
0000f451  macSetupReceiveCmd                                                 
0000f4d5  macTrackStartCallback                                              
0000f559  main                                                               
0000f5dd  ti_sysbios_family_arm_m3_Hwi_initNVIC                              
0000f661  NOROM_SysCtrlSetRechargeBeforePowerDown                            
0000f7e1  OsalPort_setTimer                                                  
0000f861  UART2Support_dmaStopTx                                             
0000f961  ti_sysbios_family_arm_m3_Hwi_postInit                              
0000f9e1  ti_sysbios_gates_GateMutexPri_enter                                
0000fa61  NOROM_ChipInfo_GetChipType                                         
0000fadf  __aeabi_ldiv0                                                      
0000fae1  Cllc_securityInit                                                  
0000fb5d  MAC_ResumeReq                                                      
0000fbd9  OsalPort_heapInit                                                  
0000fc55  RF_ratDisableChannel                                               
0000fcd1  macMcuOverflowSetCompare                                           
0000fd4d  Csf_getDeviceExtAdd                                                
0000fdc5  NOROM_OSCHF_SwitchToRcOscTurnOffXosc                               
0000fe3d  NOROM_OSC_CapArrayAdjustWorkaround_Boot                            
0000ff2d  NVOCMP_loadApiPtrs                                                 
0000ffa5  NVSCC26XX_open                                                     
00010095  _pthread_removeThreadKeys                                          
00010185  macRequestBackoff                                                  
000101fd  macTimerRealign                                                    
000102ed  ti_sysbios_knl_Task_postInit                                       
00010365  Csf_sendDisassociateMsg                                            
000103d9  PowerCC26X2_updateSubSecInc                                        
00010535  macSetupFsCmd                                                      
000105a9  macTimerSetRollover                                                
0001061d  ti_sysbios_family_arm_m3_Hwi_Instance_init                         
00010691  ti_sysbios_knl_Swi_restoreHwi                                      
00010775  ApiMac_init                                                        
000107e5  Csf_updateFrameCounter                                             
00010855  FHDATA_getASYNCDelay                                               
000109a5  OsalPort_pwrmgrTaskState                                           
00010a15  RF_getTxPower                                                      
00010af5  macRadioPowerDown                                                  
00010b65  macRxHaltCleanup                                                   
00010bd5  macRxOffRequest                                                    
00010c45  macSymbolTimerPeriodIsr                                            
00010d25  ti_sysbios_knl_Task_startup                                        
00010d95  ti_sysbios_runtime_System_formatNum                                
00010e05  LED_startBlinking                                                  
00010e73  _nop                                                               
00010e75  Csf_clearAllNVItems                                                
00010ee1  Csf_getDevice                                                      
00011025  Random_seedAutomatic                                               
00011091  appTaskFxn                                                         
000110fd  macLowLevelInit                                                    
00011169  macMcuInit                                                         
000111d5  macRadioTxPrepLbt                                                  
00011241  macTxGetDefaultMinTxOffTime                                        
00011319  ti_sysbios_family_arm_m3_Hwi_dispatchC                             
000113ef  __TI_decompress_lzss                                               
00011459  FHIE_getCcaSfdTime                                                 
00011529  UART2Support_dmaStopRx                                             
00011591  macRadioTxPrepSlotted                                              
000115f9  macRxOn                                                            
00011661  macSetTxPowerVal                                                   
000116c9  macTimerGetNextTimer                                               
00011731  ti_sysbios_knl_Swi_run                                             
000117fd  OsalPort_clearEvent                                                
00011861  PowerCC26X2_initiateCalibration                                    
000119f1  UDMACC26XX_open                                                    
00011a55  macRadioTxGoLbt                                                    
00011ab9  macTimerAddTimer                                                   
00011b1d  macTrackPeriodCallback                                             
00011be5  ti_sysbios_gates_GateMutexPri_leave                                
00011c49  ti_sysbios_knl_Idle_init                                           
00011cad  ti_sysbios_knl_TaskSupport_buildTaskStack                          
00011d75  CryptoResourceCC26XX_constructRTOSObjects                          
00011dd5  OsalPort_setEvent                                                  
00011e95  macRadioWakeupCb                                                   
00011ef5  macSymbolTimerRolloverCallback                                     
00011f55  macTimerCancel                                                     
00011fb5  pthread_exit                                                       
00012015  ti_sysbios_knl_Clock_walkQueueDynamic                              
00012075  ti_sysbios_knl_Semaphore_post                                      
000120d5  ti_sysbios_knl_Swi_schedule                                        
00012135  NOROM_RFCAnaDivTxOverride                                          
00012195  OsalPort_msgReceive                                                
0001224d  macCanSleep                                                        
000122a9  macRadioSetChannel                                                 
00012305  macRadioTxBackoffBoundary                                          
00012361  macRequestSFDTimeout                                               
000123bd  macSymbolTimerEventHandler                                         
000124d1  Button_gpioCallbackFxn                                             
00012581  Cllc_removeDevice                                                  
000125d9  Csf_getFrameCounter                                                
00012631  HEAPMGR_GETLARGESTFREEBUF                                          
00012689  OsalPort_msgSend                                                   
00012739  TRNG_init                                                          
000127e9  macRadioSetChannelRx                                               
00012841  macRadioTxPrepCsmaSlottedIeee                                      
00012899  macRadioUpdateTxPower                                              
000128f1  ti_sysbios_family_arm_m3_Hwi_initStacks                            
00012949  StructRingBuf_put                                                  
0001299f  UART2_readCancel                                                   
000129f5  UtilTimer_construct                                                
00012a4b  macApiPwrOnReq                                                     
00012a4d  AESCCM_construct                                                   
00012b9d  RF_getCurrentTime                                                  
00012bf1  macDutyCycleByteToUSec                                             
00012c45  macTxAckReceivedCallback                                           
00012ced  NOROM_ChipInfo_GetHwRevision                                       
00012d3f  macMcuBitReverse                                                   
00012d41  Board_shutDownExtFlash                                             
00012de1  macGetRadioTxPowerReg                                              
00012e31  macRadioSendEnhAck                                                 
00012f21  ti_sysbios_knl_Swi_Instance_init                                   
00012f71  ti_sysbios_knl_Swi_post                                            
00012fc1  ti_sysbios_knl_Swi_runLoop                                         
00013011  Board_sendExtFlashByte                                             
000130ad  BIOS_startFunc                                                     
000130f9  Csf_networkUpdate                                                  
00013145  MAC_SrcMatchEnable                                                 
00013191  NOROM_OSC_HPOSCRelativeFrequencyOffsetGet                          
00013229  NVSCC26XX_init                                                     
00013275  NVSCC26XX_read                                                     
000132c1  StructRingBuf_get                                                  
0001330d  macLowLevelYield                                                   
00013359  macRadioTxHandleAck                                                
000133a5  macRadioTxPrepCsmaUnslottedSubG                                    
000133f1  macSendFsCmd                                                       
0001343d  macSetDefaultsByPatch                                              
00013489  macTimerUpdActive                                                  
00013521  NOROM_AUXSYSIFOpModeChange                                         
00013569  NOROM_RFCSynthPowerDown                                            
000135b1  NVS_open                                                           
00013641  PowerCC26XX_switchXOSC_HF                                          
00013689  UART2_readFull                                                     
000136d1  macIncomingKeyUsagePolicyChecking                                  
00013719  macRxDisable                                                       
00013761  ti_sysbios_family_arm_cc26xx_Timer_start                           
000137a9  ti_sysbios_knl_Task_schedule                                       
000137f1  RingBuf_put                                                        
00013837  macRadioSetRE                                                      
00013839  BIOS_atExitFunc                                                    
0001387d  CUI_menuActionHelp                                                 
000138c1  Cllc_addSecDevice                                                  
00013905  Collector_sendDeviceTypeRequest                                    
00013949  Collector_sendToggleLedRequest                                     
0001398d  Csf_stateChangeUpdate                                              
000139d1  FHNT_delTempIndex                                                  
00013a15  GPIO_hwiIntFxn                                                     
00013a59  NOROM_PRCMPowerDomainsAllOff                                       
00013a9d  NOROM_PRCMPowerDomainsAllOn                                        
00013ae1  PWM_init                                                           
00013b25  RF_TxPowerTable_findValue                                          
00013bf1  convertTxOptions                                                   
00013c35  macRadioSetPanCoordinator                                          
00013c79  macRatDisableChannels                                              
00013cbd  macRxNokIsr                                                        
00013d01  macSymbolTimerRealignIeee                                          
00013d45  macSymbolTimerRealignSubG                                          
00013d89  macTxUpdateIE                                                      
00013dcd  ti_sysbios_family_arm_m3_Hwi_Instance_finalize                     
00013e11  ti_sysbios_family_arm_m3_Hwi_construct2                            
00013e55  ti_sysbios_family_arm_m3_Hwi_disableInterrupt                      
00013e99  ti_sysbios_family_arm_m3_Hwi_enableInterrupt                       
00013edd  ti_sysbios_knl_Swi_restore                                         
00013f21  Cllc_sendDisassociationRequest                                     
00013f61  Csf_IndicateOrphanReJoin                                           
00013fa1  Csf_deviceConfigUpdate                                             
00013fe1  Csf_deviceDisassocUpdate                                           
00014021  Csf_deviceSensorDeviceTypeResponseUpdate                           
00014061  Csf_removeDeviceListItem                                           
000140a1  MAC_PwrNextTimeout                                                 
000140e1  OsalPort_deleteTimer                                               
00014121  OsalPort_msgEnqueueMax                                             
00014161  PWM_open                                                           
000141a1  PowerCC26X2_RCOSC_clockFunc                                        
000141e1  PowerCC26X2_setAclkRefSrc                                          
00014221  atoi                                                               
00014321  macRadioStopScan                                                   
00014361  macTimerRecalcUnaligned                                            
000143a1  macTxDecrypt                                                       
000143e1  macTxFrameIsr                                                      
00014421  ti_sysbios_knl_Clock_getTicksUntilInterrupt                        
00014461  ti_sysbios_knl_Task_exit                                           
000144a1  ti_sysbios_runtime_Startup_exec                                    
000144e1  LED_setBrightnessLevel                                             
0001451f  LED_setOff                                                         
00014599  GPIO_resetConfig                                                   
000145d5  HwiP_construct                                                     
00014611  MAC_SrcMatchCheckResult                                            
0001464d  NOROM_SysCtrlIdle                                                  
00014689  PowerCC26X2_setTdcClkSrc24M                                        
0001473d  macRadioPowerUp                                                    
00014779  macRadioTxGoSlottedCsma                                            
000147b5  macSetUserConfig                                                   
000147f1  macSymbolTimerSetCount                                             
0001482d  macSymbolTimerSetTrigger                                           
00014869  macTxTimestampCallback                                             
000148e1  ti_sysbios_family_arm_cc26xx_Timer_periodicStub                    
0001491d  ti_sysbios_family_arm_cc26xx_Timer_setThreshold                    
00014959  ti_sysbios_heaps_HeapCallback_construct                            
00014995  ti_sysbios_knl_ClockSupport_init                                   
000149d1  ti_sysbios_knl_Task_blockI                                         
00014a0d  ti_sysbios_knl_Task_create                                         
00014a49  ti_sysbios_knl_Task_restore                                        
00014a85  ti_sysbios_runtime_Memory_alloc                                    
00014afd  __TI_auto_init_nobinit_nopinit                                     
00014b39  ApiMac_convertCapabilityInfo                                       
00014b73  macCheckPhyRate                                                    
00014bad  ApiMac_buildMsgCapInfo                                             
00014be5  Cllc_setJoinPermit                                                 
00014c1d  Csf_getNumDeviceListEntries                                        
00014c55  FHAPI_getTxParams                                                  
00014c8d  LED_setOn                                                          
00014cc5  MAC_PwrOffReq                                                      
00014cfd  MAC_SrcMatchAckAllPending                                          
00014d35  MAC_SrcMatchDeleteEntry                                            
00014e15  OsalPort_waitEvent                                                 
00014e4d  PowerCC26X2_oscDisableQualifiers                                   
00014e85  Random_getNumber                                                   
00014ebd  RingBuf_putAdvance                                                 
00014ef5  UART2_rxEnable                                                     
00014f2d  UDMACC26XX_close                                                   
0001500d  macRadioNeedAdjustPower                                            
00015045  macRadioSetIEEEAddr                                                
0001507d  macRadioTxPrepGreenPower                                           
000150b5  macSleepWakeUp                                                     
000150ed  macSymbolTimerCount                                                
00015125  macTimerInit                                                       
0001515d  macTxAckNotReceivedCallback                                        
00015195  macTxFrameRetransmit                                               
000151cd  pthread_mutex_init                                                 
00015205  ti_sysbios_knl_Task_processVitalTaskFlag                           
0001523d  ti_sysbios_runtime_Error_print                                     
00015275  CryptoUtils_buffersMatch                                           
000152ab  macRadioTxCancelTxAck                                              
000152ad  ClockP_create                                                      
000152e1  Csf_setBroadcastClock                                              
00015315  Csf_setConfigClock                                                 
00015349  Csf_setJoinPermitClock                                             
0001537d  Csf_setTrackingClock                                               
00015419  OsalPortTimers_cleanUpTimers                                       
0001544d  OsalPort_registerTask                                              
00015481  Power_releaseConstraint                                            
000154b5  RF_powerConstraintRelease                                          
0001551d  SwiP_construct                                                     
00015551  UART2Support_sendData                                              
00015585  UART2_rxDisable                                                    
000155b9  _pthread_cleanupFxn                                                
000155ed  macDutyCycleUpdateTransmission                                     
00015621  macLowLevelDiags                                                   
00015655  macRadioPowerUpWait                                                
00015689  macRadioTxPrepCsmaUnslottedIeee                                    
000156bd  macRatCb_B                                                         
000156f1  macRxHardDisable                                                   
00015759  macSymbolTimerBCWakeUp                                             
0001578d  macTimerAligned                                                    
000157c1  macTimerStart                                                      
000157f5  pthread_mutex_unlock                                               
00015829  ti_sysbios_family_arm_m3_Hwi_getStackInfo                          
0001585d  ti_sysbios_family_arm_m3_Hwi_init                                  
00015891  ti_sysbios_knl_Clock_Instance_init                                 
000158c5  ti_sysbios_knl_Task_unblockI                                       
000158f9  ti_sysbios_runtime_Error_raiseX                                    
0001592d  ti_sysbios_runtime_System_atexit                                   
00015961  _c_int00                                                           
00015995  MAC_SrcMatchSetPend                                                
000159c7  macRxRadioPowerUpInit                                              
000159c9  BIOS_init                                                          
000159f9  Board_wakeUpExtFlash                                               
00015a29  Cllc_getFormingPanId                                               
00015a59  ClockP_construct                                                   
00015a89  Csf_identifyLED                                                    
00015ab9  GPIO_setInterruptConfig                                            
00015ae9  MAC_SrcMatchSetDefaultPend                                         
00015b19  NVSCC26XX_erase                                                    
00015b49  OsalPort_msgExtract                                                
00015b79  Power_setConstraint                                                
00015bd9  SemaphoreP_construct                                               
00015c99  macDeviceDescriptorLookup                                          
00015cc9  macHandleTxAck                                                     
00015cf9  macRadioLimitTxPower                                               
00015d59  macSymbolTimerICallTimerCback                                      
00015d89  macTxInit                                                          
00015de9  ti_sysbios_knl_Semaphore_pendTimeout                               
00015e19  ti_sysbios_knl_TaskSupport_start                                   
00015e49  ti_sysbios_runtime_System_processAtExit                            
00015e79  NOROM_ThisLibraryIsFor_CC13x2_CC26x2_HwRev20AndLater_HaltIfViolated
00015ed5  RingBuf_getConsume                                                 
00015f03  RingBuf_putPointer                                                 
00015f31  Cllc_findDevice                                                    
00015f5d  Csf_getDeviceShort                                                 
00015f89  Csf_getNetworkInformation                                          
0001600d  NVS_init                                                           
00016039  PowerCC26XX_schedulerDisable                                       
000160e9  UART2Support_enableInts                                            
00016141  macDutyCycleCheck                                                  
0001616d  macRatCb_A                                                         
00016199  macRatDisableChannelB                                              
000161c5  macRxOff                                                           
000161f1  macRxSoftDisable                                                   
0001621d  macRxSoftEnable                                                    
00016249  macTimerCheckUnAlignedQ                                            
00016275  macTxAbortIsr                                                      
000162a1  rf_patch_cpe_prop                                                  
000162cd  ti_sysbios_family_arm_m3_Hwi_construct                             
000162f9  ti_sysbios_knl_Clock_getTicks                                      
00016325  ti_sysbios_knl_Clock_getTimeout                                    
00016351  ti_sysbios_knl_Swi_setPri                                          
0001637d  ti_sysbios_knl_Task_restoreHwi                                     
000163a9  NOROM_OSCHF_TurnOnXosc                                             
000163d3  ti_sysbios_runtime_System_exitSpin                                 
000163d5  OsalPort_buildUint32                                               
000163ff  TRNG_generateKey                                                   
00016429  UART2Support_powerRelConstraint                                    
00016453  radioComputeED                                                     
0001647d  ti_sysbios_family_arm_cc26xx_Timer_setNextTick                     
000164a7  ti_sysbios_knl_Task_allBlockedFunction                             
000164d1  BIOS_registerRTSLock                                               
00016521  Cllc_setDefaultKey                                                 
00016549  Csf_displayError                                                   
00016571  Csf_initializeBroadcastClock                                       
00016599  Csf_initializeConfigClock                                          
000165c1  Csf_initializeTrackingClock                                        
000165e9  List_remove                                                        
00016611  MAC_AbortScan                                                      
00016639  OsalPort_heapGetStats                                              
00016661  OsalPort_msgEnqueue                                                
00016689  PowerCC26XX_isStableXOSC_HF                                        
00016701  macRadioSetPanID                                                   
00016729  macRadioSetShortAddr                                               
00016751  macRadioSwInit                                                     
00016779  macRxEnable                                                        
000167a1  macRxOnOffInit                                                     
000167c9  macTimer                                                           
000167f1  sem_init                                                           
00016869  ti_sysbios_family_arm_m3_Hwi_excHandlerAsm                         
00016891  ti_sysbios_knl_Swi_init                                            
000168b9  ti_sysbios_knl_TaskSupport_swap                                    
000168c4  ti_sysbios_knl_TaskSupport_swapReturn                              
000168e1  ti_sysbios_knl_Task_construct                                      
00016909  ti_sysbios_knl_Task_init                                           
00016959  List_insert                                                        
0001697f  List_putHead                                                       
000169a5  OsalPort_msgDequeue                                                
000169cb  UART2Support_powerSetConstraint                                    
000169f1  sAddrCmp                                                           
00016a3d  ti_sysbios_knl_Clock_create                                        
00016a65  BIOS_removeRTSLock                                                 
00016aad  Csf_initializeIdentifyClock                                        
00016ad1  List_put                                                           
00016af5  OsalPort_msgAllocate                                               
00016b19  PowerCC26X2_getOscHfSourceReady                                    
00016b3d  PowerCC26X2_setSubSecIncToXoscLf                                   
00016b61  PowerCC26X2_writeCtrim                                             
00016b85  PowerCC26X2_writeCtrimFract                                        
00016ba9  PowerCC26X2_writeCtrimFractEn                                      
00016bcd  PowerCC26X2_writeRtrim                                             
00016bf1  Power_registerNotify                                               
00016ca5  SemaphoreP_createBinary                                            
00016d35  macSymbolTimerPowerDown                                            
00016d59  macSymbolTimerRestore                                              
00016d7d  macSymbolTimerSetRollover                                          
00016e79  ti_sysbios_knl_Semaphore_Instance_init                             
00016e9d  ti_sysbios_knl_Semaphore_create                                    
00016ec1  ti_sysbios_knl_Semaphore_destruct                                  
00016ee5  ti_sysbios_knl_Task_enter                                          
00016f09  LED_stopBlinking                                                   
00016f2b  List_get                                                           
00016f6f  RingBuf_getPointer                                                 
00016f91  UART2_read                                                         
00016ff7  sAddrExtCmp                                                        
00017019  ti_sysbios_gates_GateMutexPri_insertPri                            
0001703d  Collector_updateStats                                              
0001705d  Csf_closeNwk                                                       
0001707d  Csf_openNwk                                                        
0001709d  NOROM_RFCDoorbellSendTo                                            
000170bd  NOROM_RFCOverrideSearch                                            
000170dd  NVSCC26XX_getAttrs                                                 
000170fd  PowerCC26X2_disableTCXOQual                                        
0001711d  PowerCC26X2_enableTCXOQual                                         
0001713d  PowerCC26XX_schedulerRestore                                       
0001715d  Power_unregisterNotify                                             
0001719d  RF_getRssi                                                         
000171fd  RF_setTxPower                                                      
0001721d  SemaphoreP_constructBinary                                         
0001725d  macGetRadioState                                                   
0001727d  macMcuTimerCapture                                                 
0001729d  macPibIndex                                                        
000172bd  macRadioEnergyDetectStop                                           
000172fd  macRxSFDTimerExpiry                                                
0001731d  macSymbolTimerSetTriggerRollover                                   
000173dd  rfSelect                                                           
0001745d  ti_sysbios_family_arm_m3_Hwi_initStack                             
0001747d  ti_sysbios_gates_GateMutexPri_Instance_init                        
0001749d  ti_sysbios_knl_Clock_delete                                        
000174bd  ti_sysbios_knl_Semaphore_delete                                    
000174dd  ti_sysbios_knl_Task_delete                                         
000174fd  ti_sysbios_knl_Task_destruct                                       
0001751d  NOROM_FlashProgram                                                 
0001753b  NOROM_FlashSectorErase                                             
00017559  OsalPort_msgDeallocate                                             
00017577  UART2_writeTimeout                                                 
00017595  ti_sysbios_family_arm_m3_Hwi_switchAndRunFunc                      
000175b5  BIOS_rtsLock                                                       
000175d1  CUI_menuActionBack                                                 
000175ed  Csf_deviceNotActiveUpdate                                          
00017609  GPIO_setCallback                                                   
00017625  GPIO_setMux                                                        
00017641  HwiP_setPriority                                                   
00017695  OsalPort_memcmp                                                    
000176b1  Power_getTransitionLatency                                         
00017705  RF_powerConstraintSet                                              
0001773d  RingBuf_flush                                                      
00017759  crc_update                                                         
00017775  macMcuOverflowCapture                                              
00017791  macNopBackoffTimerExpiry                                           
000177ad  macRadioInit                                                       
000177c9  macRadioTxBOBoundary                                               
000177e5  macRadioTxPrepCsmaSlotted                                          
00017801  macRadioTxPrepCsmaUnslotted                                        
0001781d  macRxAckTxDoneCallback                                             
00017839  macSendReceiveCmd                                                  
00017855  macSymbolTimerCompareIsr                                           
00017871  macSymbolTimerRealign                                              
000178c5  ti_sysbios_knl_Clock_Instance_finalize                             
000178e1  ti_sysbios_knl_Clock_construct                                     
000178fd  ti_sysbios_knl_Idle_run                                            
00017919  ti_sysbios_knl_Queue_put                                           
00017935  ti_sysbios_knl_Semaphore_construct                                 
00017951  ti_sysbios_knl_Swi_construct                                       
0001796d  ti_sysbios_knl_Swi_destruct                                        
000179a3  LED_toggle                                                         
000179d7  OsalPort_msgPush                                                   
000179f1  UART2Support_disableRx                                             
00017a0b  copyApiMacAddrToMacAddr                                            
00017a25  macCheckPhyMode                                                    
00017a41  BIOS_exitFunc                                                      
00017a59  BIOS_rtsUnlock                                                     
00017a71  Cllc_setChanMask                                                   
00017a89  GPIO_disableInt                                                    
00017aa1  MAC_PwrOnReq                                                       
00017ab9  NVSCC26XX_lock                                                     
00017ad1  PowerCC26XX_calibrate                                              
00017ae9  Power_idleFunc                                                     
00017b01  RF_ScheduleCmdParams_init                                          
00017b19  RF_cancelCmd                                                       
00017b61  Util_clearEvent                                                    
00017b79  Util_setEvent                                                      
00017bc1  macTimerSyncRollover                                               
00017bd9  macWrapper8ByteUnused                                              
00017c21  pthread_attr_init                                                  
00017c51  ti_sysbios_knl_Clock_scheduleNextTick                              
00017c69  ti_sysbios_knl_Swi_construct2                                      
00017c81  ti_sysbios_knl_Swi_or                                              
00017c99  ti_sysbios_knl_TaskSupport_glue                                    
00017cb1  ti_sysbios_knl_Task_unblock                                        
00017cc9  ti_sysbios_runtime_System_printf                                   
00017ce1  ti_sysbios_runtime_System_vprintf                                  
00017d41  Board_init                                                         
00017d57  Cllc_securityFill                                                  
00017d6d  HwiP_interruptsEnabled                                             
00017d83  HwiP_setFunc                                                       
00017d99  List_clearList                                                     
00017dc5  RF_ratCompare                                                      
00017ddb  SystemP_snprintf                                                   
00017df1  TIMAC_ROM_Init                                                     
00017e1d  macRadioSetTxPower                                                 
00017e33  macTimerRemoveTimer                                                
00017e49  ti_sysbios_knl_Clock_start                                         
00017e5f  ti_sysbios_knl_Task_block                                          
00017e75  AESCCM_init                                                        
00017e89  GPIO_read                                                          
00017e9d  MAC_SrcMatchCheckAllPending                                        
00017eed  RF_flushCmd                                                        
00017f01  SwiP_disable                                                       
00017f15  TRNG_close                                                         
00017f3d  _args_main                                                         
00017f51  macCsmaTimerExpiry                                                 
00017f65  macRxBackoffTimerExpiry                                            
00017f79  macRxOnRequest                                                     
00017f8d  macSymbolBCTimerPowerUp                                            
00017fa1  macSymbolSetupPwrMgmt                                              
00017fb5  macTxBackoffTimerExpiry                                            
00017fc9  pthread_attr_setschedparam                                         
00017fdd  pthread_mutexattr_init                                             
00018005  ti_sysbios_family_arm_m3_Hwi_switchFromBootStack                   
00018041  __aeabi_memset                                                     
00018041  __aeabi_memset4                                                    
00018041  __aeabi_memset8                                                    
0001804d  __aeabi_memclr                                                     
0001804d  __aeabi_memclr4                                                    
0001804d  __aeabi_memclr8                                                    
00018055  __aeabi_uldivmod                                                   
00018069  Cllc_startNetwork                                                  
0001808d  NVS_write                                                          
000180c3  RF_getCmdOp                                                        
000180d5  StructRingBuf_construct                                            
000180f9  macMcuLongDiv                                                      
0001810b  sAddrCpy                                                           
0001812f  TI_memcpy_small                                                    
00018141  AESCCM_Params_init                                                 
00018151  AESCCM_open                                                        
00018161  ApiMac_mlmeSetReqBool                                              
00018171  ApiMac_mlmeSetReqUint16                                            
00018181  ApiMac_mlmeSetReqUint8                                             
00018191  ApiMac_mlmeSetSecurityReqUint16                                    
000181a1  Button_Params_init                                                 
000181b1  Cllc_getChanMask                                                   
000181c1  Cllc_getDefaultKey                                                 
000181d1  Cllc_securityCheck                                                 
000181e1  Cllc_setFormingPanId                                               
000181f1  ClockP_getCpuFreq                                                  
00018201  FH_ROM_Init                                                        
00018211  GPIO_write                                                         
00018221  HMAC_ROM_Init                                                      
00018231  HwiP_Params_init                                                   
00018241  HwiP_post                                                          
00018251  Icall_Osal_ROM_Init                                                
00018261  LMAC_ROM_Init                                                      
00018271  MAC_CbackCheckPending                                              
00018281  MAC_CbackQueryRetransmit                                           
00018291  Main_assertHandler                                                 
000182a1  NOROM_RFCCpeIntGetAndClear                                         
000182b1  NOROM_RFCHwIntGetAndClear                                          
00018311  OsalPort_memcpy                                                    
00018321  PWM_Params_init                                                    
00018331  PowerCC26X2_oscCtlClearXtal                                        
00018341  PowerCC26X2_prcmEnableCacheRetention                               
00018351  PowerCC26X2_readCtrim                                              
00018361  PowerCC26X2_readCtrimFract                                         
00018371  PowerCC26X2_readRtrim                                              
00018381  PowerCC26X2_switchToTCXO                                           
00018391  Power_getDependencyCount                                           
000183a1  RingBuf_construct                                                  
000183b1  SwiP_Params_init                                                   
000183c1  UART2Support_txDone                                                
000183e1  ti_sysbios_family_arm_cc26xx_Timer_dynamicStub                     
000183f1  ti_sysbios_family_arm_m3_Hwi_excHandler                            
00018401  ti_sysbios_runtime_System_vsnprintf                                
00018411  __TI_zero_init                                                     
00018421  LED_Params_init                                                    
0001843d  NVS_read                                                           
00018501  RF_RatConfigCompare_init                                           
0001850f  StructRingBuf_isFull                                               
0001851d  SwiP_setPriority                                                   
0001852b  UART2_write                                                        
00018539  Util_buildUint32                                                   
00018547  macLowLevelBufferInit                                              
00018555  macLowLevelReset                                                   
00018563  macLowLevelResume                                                  
00018571  sem_wait                                                           
000185c5  TI_memset_small                                                    
000185d3  __TI_decompress_none                                               
000185e1  AESCCM_close                                                       
000185ed  ApiMac_registerCallbacks                                           
000185f9  BIOS_linkedWithIncorrectBootLibrary                                
00018605  BIOS_start                                                         
00018611  ClockP_delete                                                      
0001861d  CryptoKeyPlaintext_initBlankKey                                    
00018629  CryptoKeyPlaintext_initKey                                         
00018635  Csf_isConfigTimerActive                                            
00018641  Csf_isTrackingTimerActive                                          
0001864d  HwiP_disable                                                       
00018659  MAC_PwrMode                                                        
00018665  NOROM_CPUcpsid                                                     
00018671  NOROM_CPUcpsie                                                     
00018689  NVSCC26XX_unlock                                                   
000186c5  OsalPortTimers_registerCleanupEvent                                
000186d1  OsalPort_stopTimer                                                 
000186dd  PowerCC26X2_oscClockSourceGet                                      
000186e9  PowerCC26X2_setPeriphDeepSleepEnable                               
000186f5  PowerCC26X2_sysCtrlGetResetSource                                  
00018701  PowerCC26X2_sysCtrlVoltageConditionalControl                       
0001870d  Power_getConstraintMask                                            
00018719  RF_Params_init                                                     
00018725  SemaphoreP_delete                                                  
00018731  SwiP_getTrigger                                                    
0001873d  UART2Support_disableTx                                             
00018749  UART2Support_enableRx                                              
00018755  UART2Support_enableTx                                              
00018761  UART2_Params_init                                                  
0001876d  _register_lock                                                     
00018779  _register_unlock                                                   
00018791  macPwrReset                                                        
0001879d  macRegisterSfdDetect                                               
000187a9  macRxSequenceNum                                                   
000187b5  macSymbolTimerGetTrigger                                           
000187c1  osalHeapInitFxn                                                    
000187d9  pthread_attr_setdetachstate                                        
000187e5  pthread_self                                                       
000187f1  ti_sysbios_knl_ClockSupport_setNextTick                            
000187fd  ti_sysbios_knl_Clock_tick                                          
00018809  AESCCM_Operation_init                                              
00018813  CUI_clientParamsInit                                               
0001881d  ClockP_Params_init                                                 
00018827  FHIEPATCH_getPieId                                                 
000188ef  OsalPort_enterCS                                                   
000188f9  PowerCC26X2_sysCtrlStandby                                         
00018903  SemaphoreP_pend                                                    
0001890d  UDMACC26XX_hwiIntFxn                                               
00018917  Util_copyExtAddr                                                   
00018921  macMcuRandomByte                                                   
0001892b  osalHeapGetStatsFxn                                                
00018935  sem_post                                                           
0001893f  Csf_free                                                           
00018947  NOROM_CPUdelay                                                     
0001894f  NVSCC26XX_close                                                    
0001896f  PowerCC26X2_oschfTrySwitchToXosc                                   
00018977  SemaphoreP_Params_init                                             
0001897f  UtilTimer_setTimeout                                               
00018987  Util_breakUint32                                                   
00018991  __aeabi_errno_addr                                                 
00018999  pthread_mutex_lock                                                 
000189a1  ti_sysbios_runtime_System_exit                                     
000189a9  AESCCM_oneStepDecrypt                                              
000189af  AESCCM_oneStepEncrypt                                              
000189b5  Button_setCallback                                                 
000189bb  CUI_paramsInit                                                     
000189c1  ClockP_stop                                                        
000189c7  HwiP_restore                                                       
000189cd  Main_excHandler                                                    
000189d3  NVSCC26XX_control                                                  
000189d9  NVS_erase                                                          
000189df  NVS_getAttrs                                                       
00018a03  OsalPort_leaveCS                                                   
00018a09  PWM_close                                                          
00018a0f  PWM_setDuty                                                        
00018a15  PWM_start                                                          
00018a1b  RF_RatConfigOutput_init                                            
00018a27  RF_runDirectCmd                                                    
00018a2d  RF_runImmediateCmd                                                 
00018a33  Util_buildUint16                                                   
00018a39  assertHandler                                                      
00018a3f  macRadioTxGoGreenPower                                             
00018a45  macRadioTxGoSlotted                                                
00018a4b  macTxBackoffHandler                                                
00018a51  osalHeapAllocFxn                                                   
00018a57  osalHeapFreeFxn                                                    
00018a5d  pthread_attr_setstacksize                                          
00018a63  sAddrExtCpy                                                        
00018a69  ti_sysbios_family_arm_m3_Hwi_destruct                              
00018a6f  ti_sysbios_family_arm_m3_Hwi_doSwiRestore                          
00018a75  ti_sysbios_family_arm_m3_Hwi_doTaskRestore                         
00018a7b  ti_sysbios_heaps_HeapCallback_alloc                                
00018a81  ti_sysbios_heaps_HeapCallback_free                                 
00018a87  ti_sysbios_heaps_HeapCallback_getStats                             
00018a8d  ti_sysbios_heaps_HeapCallback_isBlocking                           
00018a93  ti_sysbios_knl_Idle_loop                                           
00018a99  ti_sysbios_knl_Swi_startup                                         
00018a9f  ApiMac_mlmeAssociateRsp                                            
00018aa3  ApiMac_mlmeDisassociateReq                                         
00018aa7  ApiMac_mlmeGetReqArray                                             
00018aab  ApiMac_mlmeGetReqUint16                                            
00018aaf  ApiMac_mlmeGetReqUint32                                            
00018ab3  ApiMac_mlmeGetReqUint8                                             
00018ab7  ApiMac_mlmeOrphanRsp                                               
00018abb  ApiMac_mlmeSetSecurityReqArray                                     
00018abf  ApiMac_mlmeSetSecurityReqStruct                                    
00018ac3  ApiMac_mlmeStartReq                                                
00018ac7  ApiMac_secAddDevice                                                
00018acb  ApiMac_secAddKeyInitFrameCounter                                   
00018acf  ApiMac_secDeleteDevice                                             
00018ad3  ClockP_destruct                                                    
00018ad7  ClockP_getSystemTickPeriod                                         
00018adb  ClockP_getSystemTicks                                              
00018adf  ClockP_getTimeout                                                  
00018ae3  ClockP_isActive                                                    
00018ae7  ClockP_setTimeout                                                  
00018aeb  ClockP_start                                                       
00018aef  Csf_malloc                                                         
00018af3  FHIEPATCH_extractHie                                               
00018af7  FHIEPATCH_extractPie                                               
00018afb  FHIEPATCH_genHie                                                   
00018aff  FHIEPATCH_genPieContent                                            
00018b03  FHIEPATCH_getHieLen                                                
00018b07  FHIEPATCH_getPieContentLen                                         
00018b0b  FHIEPATCH_parseHie                                                 
00018b0f  FHIEPATCH_parsePie                                                 
00018b13  HwiP_destruct                                                      
00018b17  HwiP_enableInterrupt                                               
00018b1b  NOROM_RFCOverrideUpdate                                            
00018b1f  OsalPort_free                                                      
00018b23  OsalPort_malloc                                                    
00018b27  PowerCC26X2_oschfSwitchToRcosc                                     
00018b2b  PowerCC26X2_sysCtrlIdle                                            
00018b2f  PowerCC26X2_turnOnXosc                                             
00018b33  RF_defaultExecutionPolicy                                          
00018b37  RingBuf_getCount                                                   
00018b3b  SemaphoreP_destruct                                                
00018b3f  SemaphoreP_post                                                    
00018b43  SwiP_destruct                                                      
00018b47  SwiP_or                                                            
00018b4b  SwiP_restore                                                       
00018b4f  SystemP_vsnprintf                                                  
00018b53  TRNG_generateEntropy                                               
00018b57  UtilTimer_isActive                                                 
00018b5b  UtilTimer_start                                                    
00018b5f  UtilTimer_stop                                                     
00018b63  Util_hiUint16                                                      
00018b67  Util_loUint16                                                      
00018b6b  _system_post_cinit                                                 
00018b6f  _system_pre_init                                                   
00018b77  macPibCheckByPatch                                                 
00018b7b  macRadioComputeLQI                                                 
00018b7f  macRadioRandomByte                                                 
00018b83  macRxBackoffHandler                                                
00018b8b  macSymbolTimerReset                                                
00018b8f  macTimerGetTime                                                    
00018b93  macTxAckIsr                                                        
00018b97  malloc                                                             
00018b9f  osalHeapIsBlockingFxn                                              
00018ba5  __aeabi_memcpy                                                     
00018ba5  __aeabi_memcpy4                                                    
00018ba5  __aeabi_memcpy8                                                    
00018c20  __c_args__                                                         
00018fd4  __TI_Handler_Table_Base                                            
00018fe0  __TI_Handler_Table_Limit                                           
00019010  __TI_CINIT_Base                                                    
00019048  __TI_CINIT_Limit                                                   
00019048  __TI_CINIT_Warm                                                    
00056001  macRxFrameIsr                                                      
000567d9  macRadioTxGo                                                       
00057fa5  ApiMac_mcpsDataReq                                                 
00057fa8  __ccfg                                                             
10030101  FHAPI_start                                                        
1003035d  FHAPI_completeTxCb                                                 
10030501  FHAPI_completeRxCb                                                 
10030689  FHAPI_sendData                                                     
10030809  FHAPI_reset                                                        
100308d1  FHAPI_getTxParams_old                                              
10030989  FHAPI_startBS                                                      
10030a81  FHAPI_getRemDT                                                     
10030ad1  FHAPI_SFDRxCb                                                      
10030b11  FHAPI_stopAsync                                                    
10030b51  FHAPI_setStateCb                                                   
10030b81  FHAPI_getTxChHoppingFunc                                           
10030bad  FHAPI_getBitCount                                                  
10030bd1  FHDATA_procASYNCReq                                                
10030d61  FHDATA_getPktFromQueue                                             
10030e05  FHDATA_purgeUnSupportedFrameTypes                                  
10030e89  FHDATA_purgePktFromQueue                                           
10030efd  FHDATA_requeuePkt                                                  
10030fb5  FHDATA_chkASYNCStartReq                                            
10030fed  FHDATA_updateCCA                                                   
10031011  FHDATA_asyncMinTxOffTimerCb                                        
10031029  FHDATA_checkPktFromQueue                                           
1003103d  FHDATA_procEDFEReq                                                 
10031051  FHDATA_startEDFEReq                                                
10031065  FHDATA_startEDFETimer                                              
10031069  FHDH1CF_hashword                                                   
10031129  FHDH1CF_getBCChannelNum                                            
100311ad  FHDH1CF_mapChIdxChannel                                            
10031209  FHDH1CF_getCh                                                      
1003125d  FHDH1CF_getChannelNum                                              
100312b1  FHDH1CF_getTxChannelNum                                            
100312f5  FHDH1CF_getBcCh                                                    
10031325  FHIE_genPieContent                                                 
10031699  FHIE_parsePie                                                      
1003197d  FHIE_extractPie                                                    
10031ba9  FHIE_parseCommonInformation                                        
10031d91  FHIE_genHie                                                        
10031ec9  FHIE_parseHie                                                      
10031fed  FHIE_genCommonInformation                                          
1003210d  FHIE_genPie                                                        
1003220d  FHIE_getPieContentLen                                              
1003230d  FHIE_extractHie                                                    
100323cd  FHIE_genExcludedChannelRanges                                      
1003248d  FHIE_genBTIE                                                       
10032599  FHIE_getPieLen                                                     
10032619  FHIE_getHieLen                                                     
10032689  FHIE_genExcludedChannelMask                                        
100326f1  FHIE_getChannelPlan                                                
10032755  FHIE_genUTIE                                                       
100327b1  FHIE_getCommonInformationLen                                       
10032805  FHIE_isChannelPlanValid                                            
10032859  FHIE_getExcludedChannelControl                                     
10032895  FHIE_getSubPie                                                     
100328cf  FHIE_getPie                                                        
10032905  FHIE_gen                                                           
10032939  FHIE_getHie                                                        
1003296d  FHIE_getLen                                                        
1003299d  FHMGR_bcTimerIsrCb                                                 
10032acd  FHMGR_updateRadioUCChannel                                         
10032b45  FHMGR_updateRadioBCChannel                                         
10032bb5  FHMGR_ucTimerIsrCb                                                 
10032c1d  FHMGR_macStartFHTimer                                              
10032c75  FHMGR_updateHopping                                                
10032cc9  FHMGR_macStartOneShotTimer                                         
10032cf5  FHMGR_BCTimerEventUpd                                              
10032d11  FHMGR_macCancelFHTimer                                             
10032d29  FHMGR_macGetElapsedFHTime                                          
10032d41  FHMGR_pendBcChUpdate                                               
10032d47  FHMGR_pendUcChUpdate                                               
10032d4d  FHNT_purgeEntry                                                    
10032ea1  FHNT_getRemoveEntryFromTemp                                        
10032fe1  FHNT_getEntry                                                      
10033119  FHNT_AddDeviceCB                                                   
10033209  FHNT_createEntry                                                   
100332c5  FHNT_createFixedEntry                                              
10033381  FHNT_addTempEUI                                                    
10033429  FHNT_initTempTable                                                 
100334c5  FHNT_getRemoveEntry                                                
1003355d  FHNT_getRemoveFixedEntry                                           
100335f5  FHNT_getFixedEntry                                                 
10033671  FHNT_getNTIndexFromTempIndex                                       
100336e5  FHNT_getOptEntry                                                   
1003374d  FHNT_addOptEntry                                                   
100337b1  FHNT_DelDeviceCB                                                   
10033811  FHNT_reset                                                         
100338c1  FHNT_getFixedNTIndexFromTempIndex                                  
10033915  FHNT_putEntry                                                      
10033969  FHNT_getAvailEntry                                                 
100339b1  FHNT_putFixedEntry                                                 
100339f9  FHNT_getEUI                                                        
10033a3d  FHNT_purgeTimerIsrCb                                               
10033a75  FHNT_init                                                          
10033aa9  FHNT_assessTime                                                    
10033ac9  FHPIB_set                                                          
10033ca5  FHPIB_get                                                          
10033cf5  FHPIB_getLen                                                       
10033d25  FHPIB_getIndex                                                     
10033d41  FHPIB_reset                                                        
10033d59  FHSM_event                                                         
10033d9d  FSM_transaction_debug                                              
10033dcd  FHUTIL_adjBackOffDur                                               
10033f09  FHUTIL_getBcTxParams                                               
10033fc9  FHUTIl_updateBTIE                                                  
1003404d  FHUTIL_getTxChannel                                                
100340cd  FHUTIL_getCurBfio                                                  
10034149  FHUTIL_getGuardTime                                                
100341c1  FHUTIL_getBitCounts                                                
10034219  FHUTIL_getChannelSpacing                                           
10034261  FHUTIL_getCurUfsi                                                  
100342a9  FHUTIL_getCh0                                                      
100342e1  FHUTIL_getMaxChannels                                              
10034319  FHUTIL_getTxUfsi                                                   
10034349  FHUTIL_updateBcNumChannels                                         
10034375  FHUTIL_updateUcNumChannels                                         
100343a1  FHUTIL_getUcChannel                                                
100343c9  FHUTIL_getElapsedTime                                              
100343e5  FHUTIL_compBfioTxTime                                              
100343fd  FHUTIL_assert                                                      
10034411  FHUTIL_calcUfsi                                                    
1003441b  FHUTIL_elapsedTime                                                 
1003441f  FHUTIL_noAction                                                    
10034421  macTxBeaconCompleteCallback                                        
10034545  macBeaconStartContinue                                             
100346a1  macBeaconPrepareCallback                                           
10034715  macBeaconCheckStartTime                                            
10034781  macBeaconTxCallback                                                
100347ed  macBeaconSetupBroadcast                                            
10034849  MAC_InitBeaconCoord                                                
10034895  macStartBeaconPrepareCallback                                      
100348e1  macBeaconSchedRequested                                            
10034921  macBeaconClearIndirect                                             
1003495d  macBeaconPeriodCallback                                            
10034999  macOutgoingNonSlottedTx                                            
100349d5  macBeaconSetPrepareTime                                            
10034a01  macBeaconCoordReset                                                
10034a25  macBeaconBattLifeCallback                                          
10034bcd  macApiSyncReq                                                      
10034e8d  macSyncTimeoutCallback                                             
10035065  macBeaconSyncLoss                                                  
100350ed  macCheckPendAddr                                                   
10035159  MAC_InitBeaconDevice                                               
10035229  macBeaconStartFrameResponseTimer                                   
10035289  macBeaconStopTrack                                                 
100352cd  macIncomingNonSlottedTx                                            
10035311  macStartBroadcastPendTimer                                         
10035355  macBroadcastPendCallback                                           
10035369  macBeaconSetSched                                                  
10035421  macBeaconSetupCap                                                  
10035535  macBeaconRequeue                                                   
10035575  macBeaconInit                                                      
100355a9  macBeaconReset                                                     
100355dd  macBeaconCheckSched                                                
1003560d  macBuildAssociateRsp                                               
1003576d  macBuildBeacon                                                     
100358c5  macIndirectExpire                                                  
100359d5  macStartSetParams                                                  
10035ad5  macStartBegin                                                      
10035bb5  macBuildPendAddr                                                   
10035c85  macCoordReset                                                      
10035d4d  macBuildRealign                                                    
10035e09  macIndirectSend                                                    
10035eb1  macApiPurgeReq                                                     
10035f55  macRxDataReq                                                       
10036085  macIndirectTxFrame                                                 
100360fd  macApiOrphanRsp                                                    
10036171  macIndirectRequeueFrame                                            
100361e5  macIndirectMark                                                    
1003624d  MAC_InitCoord                                                      
100362b1  macRxAssociateReq                                                  
10036309  macStartContinue                                                   
10036355  macRxOrphan                                                        
10036399  macApiAssociateRsp                                                 
100363d9  macStartComplete                                                   
10036419  macRxBeaconReq                                                     
10036455  MAC_McpsPurgeReq                                                   
10036471  MAC_MlmeAssociateRsp                                               
1003648d  MAC_MlmeOrphanRsp                                                  
100364a9  macPendAddrLen                                                     
100364c5  macRxPanConflict                                                   
100364e1  MAC_MlmeStartReq                                                   
100364f9  macTxCompleteCallback                                              
100368cd  macDataTxSend                                                      
10036ba1  macAllocTxBuffer                                                   
10036cd9  macRxCompleteCallback                                              
10036e05  MAC_McpsDataAlloc                                                  
10036ef5  macApiDataReq                                                      
10036fc5  macAutoPendMaintainSrcMatchTable                                   
1003712d  macDataTxEnqueue                                                   
10037279  macDataReset                                                       
100372f5  macFrameDurationSubG                                               
10037361  macCheckIndPacket                                                  
100373b9  macDataRxInd                                                       
100373fd  macRxCheckMACPendingCallback                                       
1003742d  macRxCheckPendingCallback                                          
10037455  macDataRxMemAlloc                                                  
10037479  macFrameDuration                                                   
1003749d  macFrameDurationIeee                                               
100374c1  macDataSend                                                        
100374e1  macCheckSched                                                      
100374fd  macDataTxTimeAvailable                                             
10037515  macDataRxMemFree                                                   
10037529  macDataTxDelayCallback                                             
1003753d  macSetSched                                                        
10037549  macBuildAssociateReq                                               
10037699  macApiAssociateReq                                                 
100377a1  macDeviceReset                                                     
10037871  macRxAssocRsp                                                      
1003792d  macAssocDataRxInd                                                  
100379b1  macPollDataRxInd                                                   
10037a35  macRxCoordRealign                                                  
10037ab9  macApiPollReq                                                      
10037b25  macAssocDataReqComplete                                            
10037b91  macPollDataReqComplete                                             
10037bed  macPollFrameResponseTimeout                                        
10037c45  MAC_InitDevice                                                     
10037c99  macAssocDataReq                                                    
10037ced  macAssocFailed                                                     
10037d35  macStartFrameResponseTimer                                         
10037d79  macAssociateCnf                                                    
10037db5  macAssocFrameResponseTimeout                                       
10037de9  macPollRxDisassoc                                                  
10037e15  macStartResponseTimer                                              
10037e3d  macPollCnf                                                         
10037e61  macPollRxAssocRsp                                                  
10037e85  macAssocRxDisassoc                                                 
10037ea5  MAC_MlmeAssociateReq                                               
10037ebd  MAC_MlmePollReq                                                    
10037ed5  macPanConflictComplete                                             
10037ee9  macBuildPayloadIes                                                 
100380d9  macBuildPayloadCoexistIe                                           
1003818d  macParseHeaderIes                                                  
1003827d  macParsePayloadIes                                                 
10038349  macUpdateHeaderIEPtr                                               
100383c5  macMlmeSubIePresent                                                
1003842b  macIeCoexistIePresent                                              
10038489  macUpdatePayloadIEPtr                                              
100384e5  macIeFreeList                                                      
10038501  macSendDataMsg                                                     
100385f1  macCbackForEvent                                                   
100386a1  macSendMsg                                                         
1003871d  macExecute                                                         
10038791  macMainReset                                                       
100387f9  mac_msg_deallocate                                                 
10038845  macSetEvent16                                                      
10038861  macSetEvent                                                        
1003887d  macStateIdleOrPolling                                              
10038899  macMainReserve                                                     
100388b1  macStateIdle                                                       
100388c9  macStateScanning                                                   
100388e1  macMainSetTaskId                                                   
100388f1  macBuildHeader                                                     
10038c1d  macBuildCommonReq                                                  
10038f61  macBuildDisassociateReq                                            
10039095  macSetDefaultsByPhyID                                              
100391c9  MAC_MlmeResetReq                                                   
100392e1  macBuildWSAsyncReq                                                 
100393ed  macCommStatusInd                                                   
100394f1  macBuildBeaconNotifyInd                                            
100395bd  macRxBeacon                                                        
100397c9  macDisassocComplete                                                
10039855  macBuildWSAsyncMsg                                                 
100398d9  macRxDisassoc                                                      
10039955  macApiDisassociateReq                                              
100399cd  MAC_Init                                                           
10039a41  macCoordDestAddrCmp                                                
10039a99  macApiWSAsyncReq                                                   
10039ae9  macDestAddrCmp                                                     
10039b35  macDestSAddrCmp                                                    
10039b81  macApiPending                                                      
10039bc1  macCoordAddrCmp                                                    
10039bfd  macSetDefaultsByRE                                                 
10039c35  macGetCoordAddress                                                 
10039c69  MAC_YieldReq                                                       
10039c95  macConflictSyncLossInd                                             
10039cbd  MAC_EnableFH                                                       
10039ce1  MAC_MlmeFHGetReq                                                   
10039d01  MAC_MlmeFHGetReqSize                                               
10039d21  MAC_MlmeFHSetReq                                                   
10039d41  MAC_StartFH                                                        
10039d61  macDefaultAction                                                   
10039d81  macGetMyAddrMode                                                   
10039da1  macWSAsyncCnf                                                      
10039dc1  MAC_MlmeDisassociateReq                                            
10039ddd  MAC_MlmeSyncReq                                                    
10039df5  MAC_MlmeWSAsyncReq                                                 
10039e0d  macApiBadState                                                     
10039e25  macApiUnsupported                                                  
10039e3d  macTxCsmaDelay                                                     
10039e55  MAC_RandomByte                                                     
10039e69  macBcTimerHandler                                                  
10039e7d  macIsCsmOperational                                                
10039e91  macSecCpy                                                          
10039ea5  macUpdateCsmPhyParam                                               
10039eb9  macGetCSMPhy                                                       
10039ec1  macNoAction                                                        
10039ec5  MAC_MlmeSetReq                                                     
1003a115  macMRFSKGetPhyDesc                                                 
1003a169  MAC_MlmeGetReq                                                     
1003a1b9  MAC_GetPHYParamReq                                                 
1003a1f9  MAC_SetPHYParamReq                                                 
1003a239  macPibReset                                                        
1003a275  MAC_MlmeGetReqSize                                                 
1003a29d  macIEEEGetPhyDesc                                                  
1003a2ad  macApiScanReq                                                      
1003a599  macScanRxBeacon                                                    
1003a839  macScanComplete                                                    
1003a8b9  macScanStartTimer                                                  
1003a931  macScanCnfInit                                                     
1003a96d  macScanFailedInProgress                                            
1003a99d  MAC_MlmeSetSecurityReq                                             
1003ac6d  macSecurityPibReset                                                
1003af09  MAC_MlmeGetSecurityReq                                             
1003b101  MAC_MlmeGetSecurityReqSize                                         
1003b159  MAC_MlmeGetPointerSecurityReq                                      
1003b199  macSecurityPibIndex                                                
1003b9f1  macUpdatePanId                                                     
1003ba75  macGetEUIIndex                                                     
1003bb81  macGetEUI                                                          
1003c6e9  macWrapperGetDefaultSourceKey                                      
20000000  ti_sysbios_family_arm_m3_Hwi_ramVectors                            
200000d8  dcBucket                                                           
2000010c  RAM_MAC_BASE_ADDR                                                  
200003e0  Cllc_associatedDevList                                             
20000838  ti_sysbios_knl_Idle_taskStack                                      
20000a38  menuBuff                                                           
20000be0  uart2CC26X2Objects                                                 
20000d50  taskTbl                                                            
20000fb8  enhancedAckBuf                                                     
200010b4  ti_sysbios_family_arm_m3_Hwi_dispatchTable                         
2000118c  LEDObjects                                                         
20001244  FHPIB_db                                                           
200012d0  FH_hnd                                                             
20001358  macPib                                                             
200013e0  gpioCallbackFunctions                                              
2000145c  gpioUserArgs                                                       
200014d8  FHNT_tableOpt                                                      
20001552  FHNT_Dbg                                                           
200015c0  ti_sysbios_knl_ClockSupport_timerStruct                            
20001620  ti_sysbios_knl_Idle_taskStruct                                     
20001678  macScan                                                            
20001870  CryptoResourceCC26XX_accessSemaphore                               
200018c0  CryptoResourceCC26XX_operationSemaphore                            
20001910  cuiMultiMenuData                                                   
2000195c  ButtonObjects                                                      
200019a4  NVOCMP_nvHandle                                                    
200019ea  macRxDataEntryOffset                                               
20001b40  FHFSM_Dbg                                                          
20001b82  macTxCsmaBackoffDelay                                              
20001b88  RF_cmdIEEERx                                                       
20001bc8  macSecurityPib                                                     
20001c44  Collector_statistics                                               
20001c80  macBeaconCoord                                                     
20001cbc  FHNT_hnd                                                           
20001cf4  macDeviceAction1                                                   
20001d2c  macBeaconDevice                                                    
20001d60  RF_cmdPropRadioDivSetup                                            
20001d90  RF_cmdPropRxAdv                                                    
20001dc0  macMgmtAction1                                                     
20001df0  macSrcExtAddrList                                                  
20001e20  ti_sysbios_knl_Swi_readyQs                                         
20001e50  ti_sysbios_knl_Task_readyQs                                        
20001e80  macCoord                                                           
20001eac  macDevice                                                          
20001f3c  RF_cmdIEEECsma                                                     
20001f5c  RF_cmdPropTxAdv                                                    
20001f7c  RF_cmdRadioSetup                                                   
20001f9c  RF_params                                                          
20001fbc  macBeacon                                                          
20001fdc  udmaCC26XXObject                                                   
20002050  BIOS_heapCallbackObject                                            
2000206c  BIOS_rtsGate                                                       
20002088  CryptoResourceCC26XX_hwi                                           
200020a4  RF_cmdPropCs                                                       
200020c0  RF_cmdPropCsSlotted                                                
200020dc  macCoordAction2                                                    
200020f8  macReset                                                           
20002114  macSemHandle                                                       
20002130  macSrcShortAddrList                                                
2000214c  RF_cmdFsRx                                                         
20002164  RF_cmdFsTx                                                         
2000217c  RF_cmdIEEETx                                                       
20002194  aesccmCC26XXObjects                                                
200021ac  macScanAction                                                      
200021ec  RF_cmdRxAckCmd                                                     
20002200  macAckDbg                                                          
20002214  macDeviceAction2                                                   
20002228  macMgmtAction2                                                     
2000223c  macStatistics                                                      
2000224e  rxCmdHandle                                                        
20002250  macBeaconDeviceAction                                              
20002260  macCoordAction3                                                    
20002270  macData                                                            
20002280  macDataTxDelay                                                     
20002290  macFrmFilter                                                       
200022a0  macRxOutputIeee                                                    
200022b0  coexMetricsStruct                                                  
200022bc  macMain                                                            
200022c8  macRxOutputSubG                                                    
200022d4  FH_PibTbl                                                          
200022de  ApiMac_extAddr                                                     
200022e6  txCmdHandle                                                        
200022e8  FHNT_tempTable                                                     
200022f0  coexOverrideUseCases                                               
200022f8  macBeaconCoordAction1                                              
20002300  macCoordAction1                                                    
20002308  macRxDataEntryQueue                                                
20002320  AESCCM_handle                                                      
20002324  FH_test_var                                                        
20002328  HEAPMGR_SIZE                                                       
2000232c  PowerCC26XX_swiKey                                                 
20002330  PowerCC26XX_taskKey                                                
20002334  appThread                                                          
20002338  collectorStatusLine                                                
2000233c  csfCuiHndl                                                         
20002340  dcCritical                                                         
20002344  dcLimited                                                          
20002348  dcPtr                                                              
2000234c  dcRegulated                                                        
20002350  dcTimeUsed                                                         
20002354  deviceStatusLine                                                   
20002358  macCryptoDrvTblPtr                                                 
2000235c  macPhyTxPower                                                      
20002360  macPrevPeriodRatCount                                              
20002364  macRfDrvTblPtr                                                     
20002368  macRxSymbol                                                        
2000236c  macSymbolTimerRollover                                             
20002370  macSymbolTimerTrigger                                              
20002374  macThread                                                          
20002378  macTimerActive                                                     
2000237c  macTxTimestamp                                                     
20002380  numJoinDevStatusLine                                               
20002384  pClockHandleEDScan                                                 
20002388  pMacRadioConfig                                                    
2000238c  pMaxPower                                                          
20002390  pRfMode                                                            
20002394  pRfPowerTable                                                      
20002398  rxRadioBufferPtr                                                   
2000239c  ti_sysbios_knl_Task_defaultStackHeap                               
200023a0  ti_sysbios_runtime_System_atexitHandlers                           
200023a4  timerAlignedQ                                                      
200023a8  timerUnalignedQ                                                    
200023af  AppTaskId                                                          
200023b0  NVOCMP_size                                                        
200023b1  appTaskId                                                          
200023b2  dcStatus                                                           
200023b3  gAction                                                            
200023b4  lastRxPriority                                                     
200023b5  lastTxPriority                                                     
200023b6  macAckTxActive                                                     
200023b7  macMgmt                                                            
200023b8  macPanCoordinator                                                  
200023b9  macPhyChannel                                                      
200023ba  macPwr                                                             
200023bb  macRxActive                                                        
200023bc  macRxEnableFlags                                                   
200023bd  macRxFilter                                                        
200023be  macRxOutgoingAckFlag                                               
200023bf  macSpecUsecsPerSymbol                                              
200023c0  macSrcResIndex                                                     
200023c1  macSymbolTimerImpending                                            
200023c2  macTaskId                                                          
200023c3  macTxActive                                                        
200023c4  macTxBe                                                            
200023c5  macTxGpInterframeDelay                                             
200023c6  macTxType                                                          
200023c7  macUnitBackoffPeriod                                               
200023c8  nvsCC26XXObjects                                                   
200023c9  rxFhRsl                                                            
200023ca  rxPromiscuousMode                                                  
200023cb  rxSeqNum                                                           
200023cc  txAckReq                                                           
200023cd  txSeqn                                                             
200023d0  PowerCC26X2_module                                                 
20002544  macMRFSKGenPhyTable                                                
20002660  gpioPinConfigs                                                     
200026dc  txPowerTable_868_pa13                                              
2000274a  ApiMac_gpOffsetToms                                                
2000274b  ApiMac_mtDataReqTxOptionGp                                         
2000274c  fhObject                                                           
20002888  BIOS_Module_state                                                  
200028b4  ti_sysbios_family_arm_m3_Hwi_Module_state                          
200028f0  ti_sysbios_runtime_Startup_done                                    
200028f3  ti_sysbios_knl_Idle_initDone                                       
200028f4  ti_sysbios_runtime_Memory_defaultHeapInstance                      
2000290c  ti_sysbios_runtime_Error_ignore                                    
20002918  ti_sysbios_family_arm_cc26xx_Timer_Module_state                    
20002924  ti_sysbios_runtime_System_Module_state                             
20002930  ti_sysbios_knl_Swi_Module_state                                    
20002958  ti_sysbios_knl_Clock_Module_state                                  
20002a2c  Cllc_events                                                        
20002a2e  Cllc_devShortAddr                                                  
20002a8a  Collector_events                                                   
20002a9c  Collector_macCallbacks                                             
20002ae4  Main_user1Cfg                                                      
20002b40  savedCllcState                                                     
20002b41  permitJoining                                                      
20002b4c  Csf_events                                                         
20002b60  Csf_keys                                                           
20002b9a  macSrcMatchIsAckAllPending                                         
20002b9b  macSrcMatchDefaultPendOn                                           
20002bf4  appSubMenu                                                         
20002c4c  FHIE_channelPlan                                                   
20002d38  commissionSubMenu                                                  
20002d78  configureSubMenu                                                   
20002db8  csfMainMenu                                                        
20002df8  ti_sysbios_knl_Task_Module_state                                   
20002e70  cuiMultiMenu                                                       
20002ea1  macBeaconPayload                                                   
20002f08  pOverrides_2gfsk50kbps154g                                         
20002f30  macActionSet                                                       
20002f58  lastRatChanA                                                       
20002f59  lastRatChanB                                                       
20002f5a  macRxCmdActive                                                     
20002f5b  macFsCmdActive                                                     
20002f5c  macRxPreempted                                                     
20002f5d  numRfCmd                                                           
20002f5e  numRxCmd                                                           
20002f5f  numRxPostCmd                                                       
20002f60  ieeeCoexEnabled                                                    
20002f64  lastPostCmd                                                        
20002f68  macSfdDetectCback                                                  
20002f78  macBeaconMargin                                                    
20002fc6  Main_assertReason                                                  
20002fc8  taskCnt                                                            
20002fcc  heapmgrMemFreeTotal                                                
20002fd0  heapmgrMemFreeError                                                
20002ff0  macStateTbl                                                        
20003004  macUser0Cfg                                                        
2000301c  pMacCbackQueryRetransmit                                           
20003020  pMacCbackCheckPending                                              
20003028  RF_cmdNop                                                          
20003038  RF_cmdNopFg                                                        
20003048  RF_prop_2gfsk50kbps154g                                            
20003058  _hposcCoeffs                                                       
20003068  macCfg                                                             
2000309c  FH_FSM                                                             
200030c4  RF_handle                                                          
200030c8  macRadioAckIeeeFrame                                               
200030cb  macRadioAckFrame                                                   
200030d0  macCsmaRtcTimerId                                                  
200030e0  FH_txTiming                                                        
200030e8  RFCC26XX_schedulerPolicy                                           
200030f0  ti_sysbios_gates_GateMutexPri_Module_state                         
200030f8  ti_sysbios_heaps_HeapCallback_Module_state                         
20003100  ti_sysbios_knl_Semaphore_Module_state                              
2000310c  __aeabi_errno                                                      
20003110  _lock                                                              
20003114  _unlock                                                            
20003118  appEvents                                                          
2000311c  macAddrSize                                                        
20003120  macDataBeaconRequeue                                               
20003124  macDataCheckSched                                                  
20003128  macDataCheckTxTime                                                 
2000312c  macDataRequeueIndirect                                             
20003130  macDataRxBeaconCritical                                            
20003134  macDataSetSched                                                    
20003138  macDataTxBeaconComplete                                            
2000313c  macDataTxIndirect                                                  
20003148  macTasksEvents                                                     
2000314c  macTimerNewRollover                                                
20003150  macTimerRollover                                                   
20003154  minTxOffTime                                                       
2000315c  pMacDataTx                                                         
20003160  pMacEnhancedAck                                                    
20003168  bInSwi                                                             
2000316a  csmPhy                                                             
2000316b  customMinTxOffEnabled                                              
2000316c  dcEnabled                                                          
20003172  macRadioYielded                                                    
20003173  macSleepState                                                      
20003174  macSrcMatchIsEnabled                                               
20003175  macTxCmdActive                                                     
20003176  macTxSlottedDelay                                                  
20003177  macTxSlottedDelayFactor                                            
20003179  numTx                                                              
2000317a  reqAccessAlloc                                                     
2000317b  heapStart                                                          
20013aa0  __stack                                                            
20013aa0  heapEnd                                                            
20014000  __STACK_END                                                        
20014000  __STACK_TOP                                                        
ffffffff  __TI_pprof_out_hndl                                                
ffffffff  __TI_prof_data_size                                                
ffffffff  __TI_prof_data_start                                               
ffffffff  __binit__                                                          
ffffffff  __start___llvm_prf_cnts                                            
ffffffff  __stop___llvm_prf_cnts                                             
ffffffff  binit                                                              
UNDEFED   ITM_flush                                                          
UNDEFED   ITM_restore                                                        
UNDEFED   PWM_config                                                         
UNDEFED   PWM_count                                                          
UNDEFED   __mpu_init                                                         

[1533 symbols]
